 eboot

 Timestamp is 5243ded3 (Thu Sep 26 15:14:27 2013)

 Preferred load address is 00010000

 Start         Length     Name                   Class
 0001:00000000 000205b0H .rdata                  CODE
 0001:000205b0 00000022H .rdata$debug            CODE
 0001:000205d4 0002a248H .text                   CODE
 0001:0004a81c 00000058H .xdata                  CODE
 0001:0004a874 00000000H .edata                  CODE
 0002:00000000 00000d6cH .data                   DATA
 0002:00000d80 0003b200H .bss                    DATA
 0003:00000000 00000e48H .pdata                  DATA

  Address         Publics by Value              Rva+Base       Lib:Object

 0000:00000000       ___safe_se_handler_count   00000000     <absolute>
 0000:00000000       ___safe_se_handler_table   00000000     <absolute>
 0001:0000001c       ??_C@_07KBOLDILN@TF?5Card?$AA@ 0001101c     main.obj
 0001:00000024       ??_C@_08GCIJLKKK@?$CKUSB_DNW?$AA@ 00011024     main.obj
 0001:00000030       ??_C@_09OKJMMDJO@USB_RNDIS?$AA@ 00011030     main.obj
 0001:0000003c       ??_C@_0L@LMLFCLIM@USB_Serial?$AA@ 0001103c     main.obj
 0001:00000048       ??_C@_08BICNCILO@Ethernet?$AA@ 00011048     main.obj
 0001:000000ec       g_pTOC                     000110ec     main.obj
 0001:000000f0       ??_C@_0BD@NOJEOCND@?$AN?6Incorrect?5String?$AA@ 000110f0     main.obj
 0001:00000104       ??_C@_0BJ@IFGBBFMB@?$AN?6Enter?5new?5IP?5address?3?5?$AA@ 00011104     main.obj
 0001:00000120       ??_C@_0BK@KKICHCJD@?$AN?6Enter?5new?5subnet?5mask?3?5?$AA@ 00011120     main.obj
 0001:0000013c       ??_C@_0DF@JLKFBNBO@?$AN?6Enter?5maximum?5number?5of?5second@ 0001113c     main.obj
 0001:00000174       ??_C@_0DI@MNNOKFKF@WARNING?3?5Set?5DM9000A?5MACAddress?3@ 00011174     main.obj
 0001:000001ac       ??_C@_0CO@EIDBOICA@INFO?3?5MAC?5address?5set?5to?3?5?$CFx?3?$CFx?3@ 000111ac     main.obj
 0001:000001dc       ??_C@_02PCIJFNDE@?$AN?6?$AA@ 000111dc     main.obj
 0001:000001e0       ??_C@_0DN@MBBAKKLM@?$AN?6Enter?5new?5MAC?5address?5in?5hexad@ 000111e0     main.obj
 0001:00000220       ??_C@_0BL@DCNGIHOF@T?$CJ?5Download?5Target?3?5?$FL?$CFs?$FN?$AN?6?$AA@ 00011220     main.obj
 0001:0000023c       ??_C@_0DK@MOJCKECN@D?$CJ?5Download?5or?5Program?5image?$CIOS?5@ 0001123c     main.obj
 0001:00000278       ??_C@_0CG@ILOPBFIK@L?$CJ?5LAUNCH?5existing?5Boot?5Media?5im@ 00011278     main.obj
 0001:000002a0       ??_C@_0CO@DCIFABNE@?$AN?6?9?9?9?9?9?9?9?9?9?5External?5Power?5modul@ 000112a0     main.obj
 0001:000002d0       ??_C@_0CJ@KAPENOEE@U?$CJ?5external?5Power?5modules?5config@ 000112d0     main.obj
 0001:000002fc       ??_C@_0CP@OECNCLMN@?$AN?6?9?9?9?9?9?9?9?9?9?5Display?5and?5Logo?5sec@ 000112fc     main.obj
 0001:0000032c       ??_C@_0CG@IJIOEDAB@G?$CJ?5LCD?5attached?3?5?$CFs?5with?5?$CFd?5Bit?5@ 0001132c     main.obj
 0001:00000354       ??_C@_0CE@GANGHMED@?$AN?6?9?9?9?9?9?9?9?9?9?5Test?5Section?5?9?9?9?9?9?9?9@ 00011354     main.obj
 0001:00000378       ??_C@_0BD@BLIEGMA@O?$CJ?5SD?5Card?5Tools?$AN?6?$AA@ 00011378     main.obj
 0001:0000038c       ??_C@_0CE@MODBGIPP@?$AN?6?9?9?9?9?9?9?9?9?9?9?9?9?9?9?9?9?9?9?9?9?9?9?9?9?9?9?9?9?9?9@ 0001138c     main.obj
 0001:000003b0       ??_C@_0BL@OMIMJCGC@?$AN?6?$AN?6Enter?5your?5selection?3?5?$AA@ 000113b0     main.obj
 0001:000003cc       ??_C@_0BB@OALGPJGL@?$CKDownload?5to?5RAM?$AA@ 000113cc     main.obj
 0001:000003e0       ??_C@_0BG@DEDDOECB@Write?5to?5NAND?5Storage?$AA@ 000113e0     main.obj
 0001:000003f8       ??_C@_05IMNPAKN@?$AI?5?$HN?$AN?6?$AA@ 000113f8     main.obj
 0001:00000400       ??_C@_04HGMFEN@?5?$CFs?0?$AA@ 00011400     main.obj
 0001:00000408       ??_C@_0CJ@GGMPGDKB@P?$CJ?5Format?5Partition?5on?5Boot?9time@ 00011408     main.obj
 0001:00000434       ??_C@_0DD@DAEFNAEC@?$AN?6?9?9?9?9?9?9?9?9?9?9?9?9?9?5NAND?5Flash?5Secti@ 00011434     main.obj
 0001:00000468       ??_C@_0CD@BLBGECHA@A?$CJ?5Erase?5All?5Blocks?$CIFormat?5FIL?$CJ?5@ 00011468     main.obj
 0001:0000048c       ??_C@_0CK@FAILCKHH@7?$CJ?5Format?5VFL?5?$CIFormat?5FIL?5?$CL?5VFL?5@ 0001148c     main.obj
 0001:000004b8       ??_C@_0CO@GOMIMANJ@8?$CJ?5Format?5FTL?5?$CIErase?5FTL?5Area?5?$CL?5@ 000114b8     main.obj
 0001:000004e8       ??_C@_0EJ@GFNBJOOP@F?$CJ?5Format?5Boot?5Media?5for?5BINFS?5w@ 000114e8     main.obj
 0001:00000534       ??_C@_0BJ@LKJGKHNF@M?$CJ?5MLC?5Low?5level?5test?5?$AN?6?$AA@ 00011534     main.obj
 0001:00000550       ??_C@_0DD@KCEFNHPL@?$AN?6?9?9?9?9?9?9?9?9?9?5Download?5and?5Launch?5@ 00011550     main.obj
 0001:00000584       ??_C@_0CB@KGGIMFAN@S?$CJ?5Switch?5Boot?5Device?5?3?5?$FL?$CFs?$FN?5?5?$AN?6@ 00011584     main.obj
 0001:000005a8       ??_C@_0BE@JPPLPOKI@?5?5?5?5?5?5?5?5?$HL?5Options?5?3?$AA@ 000115a8     main.obj
 0001:000005bc       ??_C@_0CJ@OLCBJMHE@H?$CJ?5Hive?5Clean?5on?5Boot?9time?5?5?5?5?5?5@ 000115bc     main.obj
 0001:000005e8       ??_C@_06ELMAPAIP@?$CKFalse?$AA@ 000115e8     main.obj
 0001:000005f0       ??_C@_04HPMIDMKH@True?$AA@ 000115f0     main.obj
 0001:000005f8       ??_C@_0CJ@IKJHFECI@C?$CJ?5Force?5Clean?5Boot?5Option?5?5?5?5?5?5@ 000115f8     main.obj
 0001:00000624       ??_C@_05MKDOIIA@False?$AA@ 00011624     main.obj
 0001:0000062c       ??_C@_05KOBPEMEJ@?$CKTrue?$AA@ 0001162c     main.obj
 0001:00000634       ??_C@_0CJ@MHHBDICH@I?$CJ?5KITL?5Connection?5Mode?5?5?5?5?5?5?5?5?5@ 00011634     main.obj
 0001:00000660       ??_C@_0L@HBGKIIFN@?$CKInterrupt?$AA@ 00011660     main.obj
 0001:0000066c       ??_C@_07LPCKBJPC@Polling?$AA@ 0001166c     main.obj
 0001:00000674       ??_C@_0CJ@PEJDOAAA@K?$CJ?5KITL?5Configuration?5?5?5?5?5?5?5?5?5?5?5@ 00011674     main.obj
 0001:000006a0       ??_C@_0CM@JKCHHAJJ@5?$CJ?5Startup?5Action?5after?5Boot?5del@ 000116a0     main.obj
 0001:000006cc       ??_C@_0BM@CIOCFMIE@6?$CJ?5Boot?5delay?3?5?$CFd?5seconds?$AN?6?$AA@ 000116cc     main.obj
 0001:000006e8       ??_C@_0BO@LMDPJAPH@R?$CJ?5Read?5Configuration?$CITOC?$CJ?5?$AN?6?$AA@ 000116e8     main.obj
 0001:00000708       ??_C@_0CN@BPNACNDH@W?$CJ?5Write?5Configuration?5Data?$CITOC?$CJ@ 00011708     main.obj
 0001:00000738       ??_C@_0DD@FCGODAAF@?$AN?6?9?9?9?9?9?9?9?5Kernel?5Booting?5Option?5@ 00011738     main.obj
 0001:0000076c       ??_C@_0BE@JBKDLBKA@?$CKDownload?5New?5image?$AA@ 0001176c     main.obj
 0001:00000780       ??_C@_0CG@DBKHLIEC@Launch?5Existing?5OS?5image?5from?5St@ 00011780     main.obj
 0001:000007a8       ??_C@_0BB@BHCCMIIM@2?$CJ?5DHCP?5?3?5?$FL?$CFs?$FN?$AN?6?$AA@ 000117a8     main.obj
 0001:000007bc       ??_C@_0DF@HAKFJHDG@3?$CJ?5Program?5DM9000A?5MAC?5address?5?$CI@ 000117bc     main.obj
 0001:000007f4       ??_C@_0DD@HDHPNOEH@?$AN?6?9?9?9?9?9?9?9?9?9?5Boot?5Configuration?5S@ 000117f4     main.obj
 0001:00000828       ??_C@_0CM@EFEBIFOH@4?$CJ?5Reset?5to?5factory?5default?5conf@ 00011828     main.obj
 0001:00000854       ??_C@_08JGILNPHN@Disabled?$AA@ 00011854     main.obj
 0001:00000860       ??_C@_08KKPKAPFM@?$CKEnabled?$AA@ 00011860     main.obj
 0001:0000086c       ??_C@_0DA@BDJKNLCH@?$AN?6?9?9?9?9?9?9?9?9?9?9?9?9?9?9?9?9?9?9?9?9?9?9?9?9?9?9?9?9?9?9@ 0001186c     main.obj
 0001:0000089c       ??_C@_0CI@DFIGAMJI@Ethernet?5Boot?5Loader?5Configurati@ 0001189c     main.obj
 0001:000008c4       ??_C@_0DB@GBDNCPNL@?9?9?9?9?9?9?9?9?9?9?9?5Connectivity?5Setting@ 000118c4     main.obj
 0001:000008f8       ??_C@_0BI@OODDIECE@0?$CJ?5IP?5address?5?5?3?5?$FL?$CFs?$FN?$AN?6?$AA@ 000118f8     main.obj
 0001:00000910       ??_C@_0BI@EOIEAGDD@1?$CJ?5Subnet?5mask?5?3?5?$FL?$CFs?$FN?$AN?6?$AA@ 00011910     main.obj
 0001:00000928       ??_C@_0N@FLJDAHIC@?$CFd?5seconds?4?5?$AA@ 00011928     main.obj
 0001:00000938       ??_C@_0EH@GCCPOCPE@?$AN?6Press?5?$FLENTER?$FN?5to?5download?5imag@ 00011938     main.obj
 0001:00000980       ??_C@_0CM@MPOIFBJA@?$AN?6Initiating?5image?5download?5in?5?$CF@ 00011980     main.obj
 0001:000009b0       ??_C@_0FK@OBKICLFM@?$AN?6Press?5?$FLENTER?$FN?5to?5launch?5image?5@ 000119b0     main.obj
 0001:00000a0c       ??_C@_0CK@PCOCDPAP@?$AN?6Initiating?5image?5launch?5in?5?$CFd?5@ 00011a0c     main.obj
 0001:00000a38       ??_C@_0BM@GEAABHMN@SetKITLConfigAndBootOptions?$AA@ 00011a38     main.obj
 0001:00000a54       ??_C@_0CI@KHDBHBPJ@?$CFs?3?5ERROR?3?5unknown?5Boot?5device?3?5@ 00011a54     main.obj
 0001:00000a7c       ??_C@_07KEPNGIJP@TBT6410?$AA@ 00011a7c     main.obj
 0001:00000a88       ??_C@_0ED@FEPNABFM@ERROR?3?5OEMPreDownload?3?5Failed?5to@ 00011a88     main.obj
 0001:00000acc       ??_C@_1DM@MAGNIICF@?$AAI?$AAN?$AAF?$AAO?$AA?3?$AA?5?$AAU?$AAs?$AAi?$AAn?$AAg?$AA?5?$AAs?$AAu?$AAb?$AAn?$AAe?$AAt?$AA?5?$AAm?$AAa?$AAs?$AAk?$AA?5?$AA?$CF?$AAs?$AA?4?$AA?$AN?$AA?6?$AA?$AA@ 00011acc     main.obj
 0001:00000b08       ??_C@_1EI@JDGOOGJG@?$AAI?$AAN?$AAF?$AAO?$AA?3?$AA?5?$AAU?$AAs?$AAi?$AAn?$AAg?$AA?5?$AAs?$AAt?$AAa?$AAt?$AAi?$AAc?$AA?5?$AAI?$AAP?$AA?5?$AAa?$AAd?$AAd?$AAr?$AAe?$AAs?$AAs?$AA?5?$AA?$CF?$AAs@ 00011b08     main.obj
 0001:00000b50       ??_C@_1GC@PPHJIICI@?$AAR?$AAe?$AAc?$AAe?$AAi?$AAv?$AAe?$AAd?$AA?5?$AAb?$AAo?$AAo?$AAt?$AA?5?$AAr?$AAe?$AAq?$AAu?$AAe?$AAs?$AAt?$AA?5?$AAa?$AAc?$AAk?$AA?4?$AA?4?$AA?4?$AA?5?$AAs?$AAt?$AAa@ 00011b50     main.obj
 0001:00000bb8       ??_C@_1GA@OPLAMODI@?$AAR?$AAe?$AAc?$AAe?$AAi?$AAv?$AAe?$AAd?$AA?5?$AAb?$AAo?$AAo?$AAt?$AA?5?$AAr?$AAe?$AAq?$AAu?$AAe?$AAs?$AAt?$AA?5?$AAa?$AAc?$AAk?$AA?4?$AA?4?$AA?4?$AA?5?$AAj?$AAu?$AAm@ 00011bb8     main.obj
 0001:00000c18       ??_C@_1DM@JIDKOFGC@?$AAF?$AAa?$AAi?$AAl?$AAe?$AAd?$AA?5?$AAt?$AAo?$AA?5?$AAs?$AAe?$AAn?$AAd?$AA?5?$AAb?$AAo?$AAo?$AAt?$AA?5?$AAr?$AAe?$AAq?$AAu?$AAe?$AAs?$AAt?$AA?$AN?$AA?6?$AA?$AA@ 00011c18     main.obj
 0001:00000c54       ??_C@_1DE@JGLBGENO@?$AAS?$AAe?$AAn?$AAd?$AAi?$AAn?$AAg?$AA?5?$AAb?$AAo?$AAo?$AAt?$AA?5?$AAr?$AAe?$AAq?$AAu?$AAe?$AAs?$AAt?$AA?4?$AA?4?$AA?4?$AA?$AN?$AA?6?$AA?$AA@ 00011c54     main.obj
 0001:00000c88       ??_C@_0CF@HFLCOCEL@Please?5send?5the?5Image?5through?5US@ 00011c88     main.obj
 0001:00000cb0       ??_C@_0CB@DLJNHHLM@INFO?3?5?$CK?$CK?$CK?5Device?5Name?5?8?$CFs?8?5?$CK?$CK?$CK?$AN?6@ 00011cb0     main.obj
 0001:00000cd4       ??_C@_1CG@LILOOAOE@?$AA?$CL?$AAO?$AAE?$AAM?$AAP?$AAr?$AAe?$AAD?$AAo?$AAw?$AAn?$AAl?$AAo?$AAa?$AAd?$AA?4?$AA?$AN?$AA?6?$AA?$AA@ 00011cd4     main.obj
 0001:00000cfc       ??_C@_1CA@LHEBGHJD@?$AA?$CL?$AAO?$AAE?$AAM?$AAR?$AAe?$AAa?$AAd?$AAD?$AAa?$AAt?$AAa?$AA?4?$AA?$AN?$AA?6?$AA?$AA@ 00011cfc     main.obj
 0001:00000d1c       ??_C@_1M@ODGLLCKM@?$AA?$CF?$AAd?$AA?4?$AA?$AN?$AA?6?$AA?$AA@ 00011d1c     main.obj
 0001:00000d28       ??_C@_1CI@EJEGBDJI@?$AA_?$AAO?$AAE?$AAM?$AAV?$AAe?$AAr?$AAi?$AAf?$AAy?$AAM?$AAe?$AAm?$AAo?$AAr?$AAy?$AA?4?$AA?$AN?$AA?6?$AA?$AA@ 00011d28     main.obj
 0001:00000d50       ??_C@_1DI@IBOHECO@?$AAB?$AAI?$AAN?$AA?5?$AAi?$AAm?$AAa?$AAg?$AAe?$AA?5?$AAt?$AAy?$AAp?$AAe?$AA?5?$AAi?$AAs?$AA?5?$AAu?$AAn?$AAk?$AAn?$AAo?$AAw?$AAn?$AA?$AN?$AA?6?$AA?$AA@ 00011d50     main.obj
 0001:00000d88       ??_C@_0CL@OJLNKDHN@OEMVerifyMemory?3?5Don?8t?5support?5r@ 00011d88     main.obj
 0001:00000db4       ??_C@_0BN@BHBELIFJ@OEMVerifyMemory?3?5RAM?5image?$AN?6?$AA@ 00011db4     main.obj
 0001:00000dd4       ??_C@_0BP@EBMLMIOL@OEMVerifyMemory?3?5Eboot?5image?$AN?6?$AA@ 00011dd4     main.obj
 0001:00000df4       ??_C@_0CB@IILJAOHA@OEMVerifyMemory?3?5Stepldr?5image?$AN?6@ 00011df4     main.obj
 0001:00000e18       ??_C@_1HG@ICLGKBMB@?$AAd?$AAw?$AAS?$AAt?$AAa?$AAr?$AAt?$AAA?$AAd?$AAd?$AAr?$AA?3?$AA0?$AAx?$AA?$CF?$AAx?$AA?0?$AA?5?$AAd?$AAw?$AAL?$AAe?$AAn?$AAg?$AAt?$AAh?$AA?3?$AA0?$AAx?$AA?$CF?$AAx?$AA?0@ 00011e18     main.obj
 0001:00000e90       ??_C@_1CI@DKOBFBHO@?$AA?$CL?$AAO?$AAE?$AAM?$AAV?$AAe?$AAr?$AAi?$AAf?$AAy?$AAM?$AAe?$AAm?$AAo?$AAr?$AAy?$AA?4?$AA?$AN?$AA?6?$AA?$AA@ 00011e90     main.obj
 0001:00000eb8       ??_C@_0EA@GFHGEBAD@WARNING?3?5OEMMultiBINNotify?3?5Inva@ 00011eb8     main.obj
 0001:00000ef8       ??_C@_1CM@CACCPAAK@?$AA_?$AAO?$AAE?$AAM?$AAM?$AAu?$AAl?$AAt?$AAi?$AAB?$AAI?$AAN?$AAN?$AAo?$AAt?$AAi?$AAf?$AAy?$AA?4?$AA?$AN?$AA?6?$AA?$AA@ 00011ef8     main.obj
 0001:00000f28       ??_C@_0EB@JCPIKLDC@WARNING?3?5OEMMultiBINNotify?3?5Bad?5@ 00011f28     main.obj
 0001:00000f6c       ??_C@_0CH@HMPLPLKL@?$FL?$CFd?$FN?3?5Base?5Address?$DN0x?$CFx?5?5Length?$DN@ 00011f6c     main.obj
 0001:00000f94       ??_C@_0CD@LHCIPCGL@?$AN?6Download?5BIN?5file?5information?3@ 00011f94     main.obj
 0001:00000fb8       ??_C@_0DI@GGGNACF@?9?9?9?9?9?9?9?9?9?9?9?9?9?9?9?9?9?9?9?9?9?9?9?9?9?9?9?9?9?9?9?9@ 00011fb8     main.obj
 0001:00000ff0       ??_C@_1CM@IIGCLNOI@?$AA?$CL?$AAO?$AAE?$AAM?$AAM?$AAu?$AAl?$AAt?$AAi?$AAB?$AAI?$AAN?$AAN?$AAo?$AAt?$AAi?$AAf?$AAy?$AA?4?$AA?$AN?$AA?6?$AA?$AA@ 00011ff0     main.obj
 0001:0000101c       ??_C@_0BH@IHKGCAHP@?$FL?$CFd?$FN?5Module?5Name?3?5?$CFs?$AN?6?$AA@ 0001201c     main.obj
 0001:00001034       ??_C@_06OLEINIPO@nk?4exe?$AA@ 00012034     main.obj
 0001:0000103c       ??_C@_0CB@GDACFJGJ@?$FLLDI?3ERR?$FN?5framebuffer?5at?3?50x?$CFX?6?$AN@ 0001203c     main.obj
 0001:00001060       ??_C@_0CG@OOBFHDC@?$FLeBOOT?$FN?9?9BBP?5of?5?$CFd?5is?5not?5suppor@ 00012060     main.obj
 0001:00001088       ??_C@_0CC@GEBEKLF@?$FLeBOOT?$FN?9?9?5display?5bpp?3?5?$CFd?5found?6@ 00012088     main.obj
 0001:000010ac       ??_C@_0BB@MEBHIIAP@SpinForever?4?4?4?$AN?6?$AA@ 000120ac     main.obj
 0001:000010c0       ??_C@_1KA@DGEICKPN@?$AAW?$AAA?$AAR?$AAN?$AAI?$AAN?$AAG?$AA?3?$AA?5?$AAM?$AAa?$AAi?$AAn?$AAM?$AAe?$AAn?$AAu?$AA?3?$AA?5?$AAF?$AAa?$AAi?$AAl?$AAe?$AAd?$AA?5?$AAt?$AAo?$AA?5?$AAs?$AAt?$AAo@ 000120c0     main.obj
 0001:00001160       ??_C@_1CO@DMBBNNGL@?$AAS?$AAu?$AAc?$AAc?$AAe?$AAs?$AAs?$AAf?$AAu?$AAl?$AAl?$AAy?$AA?5?$AAW?$AAr?$AAi?$AAt?$AAt?$AAe?$AAn?$AA?$AN?$AA?6?$AA?$AA@ 00012160     main.obj
 0001:00001190       ??_C@_1JG@HNCGBIEG@?$AAW?$AAA?$AAR?$AAN?$AAI?$AAN?$AAG?$AA?3?$AA?5?$AAM?$AAa?$AAi?$AAn?$AAM?$AAe?$AAn?$AAu?$AA?3?$AA?5?$AAF?$AAa?$AAi?$AAl?$AAe?$AAd?$AA?5?$AAt?$AAo?$AA?5?$AAs?$AAt?$AAo@ 00012190     main.obj
 0001:00001228       ??_C@_1GE@NMEGOFBO@?$AA?5?$AA?9?$AA?9?$AAM?$AAa?$AAk?$AAe?$AA?5?$AAI?$AAn?$AAi?$AAt?$AAi?$AAa?$AAl?$AA?5?$AAB?$AAa?$AAd?$AA?5?$AAB?$AAl?$AAo?$AAc?$AAk?$AA?5?$AAI?$AAn?$AAf?$AAo?$AAr?$AAm@ 00012228     main.obj
 0001:0000128c       ??_C@_13JOFGPIOO@?$AA?4?$AA?$AA@ 0001228c     main.obj
 0001:00001290       ??_C@_1FO@LAJAAKM@?$AAR?$AAe?$AAa?$AAd?$AA?5?$AAE?$AAr?$AAr?$AAo?$AAr?$AA?5?$AA?$EA?$AA?5?$AA?$CF?$AAd?$AA?5?$AAB?$AAl?$AAo?$AAc?$AAk?$AA?5?$AA?$CF?$AAd?$AA?5?$AAP?$AAa?$AAg?$AAe?$AA?5?$AA?9?$AA?$DO@ 00012290     main.obj
 0001:000012f0       ??_C@_1GA@FDCHABPF@?$AAW?$AAr?$AAi?$AAt?$AAe?$AA?5?$AAE?$AAr?$AAr?$AAo?$AAr?$AA?5?$AA?$EA?$AA?5?$AA?$CF?$AAd?$AA?5?$AAB?$AAl?$AAo?$AAc?$AAk?$AA?5?$AA?$CF?$AAd?$AA?5?$AAP?$AAa?$AAg?$AAe?$AA?5?$AA?9@ 000122f0     main.obj
 0001:00001350       ??_C@_1EK@EPMLGIED@?$AAB?$AAa?$AAd?$AA?5?$AAm?$AAa?$AAr?$AAk?$AAi?$AAn?$AAg?$AA?5?$AAW?$AAr?$AAi?$AAt?$AAe?$AA?5?$AAE?$AAr?$AAr?$AAo?$AAr?$AA?5?$AA?$EA?$AA?5?$AA?$CF?$AAd?$AA?5?$AAB?$AAl?$AAo@ 00012350     main.obj
 0001:000013a0       ??_C@_1FA@LMDKDCIE@?$AAE?$AAr?$AAa?$AAs?$AAe?$AA?5?$AAE?$AAr?$AAr?$AAo?$AAr?$AA?5?$AA?$EA?$AA?5?$AA?$CF?$AAd?$AA?5?$AAB?$AAl?$AAo?$AAc?$AAk?$AA?5?$AA?9?$AA?$DO?$AA?5?$AAB?$AAa?$AAd?$AA?5?$AAM?$AAa@ 000123a0     main.obj
 0001:000013f0       ??_C@_1DO@BDKOKFMG@?$AAI?$AAn?$AAi?$AAt?$AAi?$AAa?$AAl?$AA?5?$AAB?$AAa?$AAd?$AA?5?$AAB?$AAl?$AAo?$AAc?$AAk?$AA?5?$AA?$EA?$AA?5?$AA?$CF?$AAd?$AA?5?$AAB?$AAl?$AAo?$AAc?$AAk?$AA?$AN?$AA?6?$AA?$AA@ 000123f0     main.obj
 0001:00001430       ??_C@_1GG@EIHIKBKC@?$AA?5?$AA?$CL?$AA?$CL?$AAM?$AAa?$AAk?$AAe?$AA?5?$AAI?$AAn?$AAi?$AAt?$AAi?$AAa?$AAl?$AA?5?$AAB?$AAa?$AAd?$AA?5?$AAB?$AAl?$AAo?$AAc?$AAk?$AA?5?$AAI?$AAn?$AAf?$AAo?$AAr?$AAm@ 00012430     main.obj
 0001:00001498       ??_C@_1DE@FIHALFOM@?$AAI?$AAn?$AAi?$AAt?$AAi?$AAa?$AAl?$AA?5?$AAB?$AAa?$AAd?$AA?5?$AAB?$AAl?$AAo?$AAc?$AAk?$AA?5?$AAC?$AAh?$AAe?$AAc?$AAk?$AA?$AN?$AA?6?$AA?$AA@ 00012498     main.obj
 0001:000014cc       ??_C@_1DI@IDPLLEKK@?$AA?5?$AA?9?$AA?9?$AAE?$AAr?$AAa?$AAs?$AAe?$AA?5?$AAP?$AAh?$AAy?$AAs?$AAi?$AAc?$AAa?$AAl?$AA?5?$AAB?$AAl?$AAo?$AAc?$AAk?$AA?5?$AA0?$AA?$AN?$AA?6?$AA?$AA@ 000124cc     main.obj
 0001:00001504       ??_C@_1DI@NMGHPEOF@?$AA?$FL?$AAE?$AAR?$AAR?$AA?$FN?$AA?5?$AAE?$AAr?$AAa?$AAs?$AAe?$AA?5?$AAB?$AAl?$AAo?$AAc?$AAk?$AA?5?$AA0?$AA?5?$AAE?$AAr?$AAr?$AAo?$AAr?$AA?$AN?$AA?6?$AA?$AA@ 00012504     main.obj
 0001:0000153c       ??_C@_1DI@CJPNEPHB@?$AA?5?$AA?$CL?$AA?$CL?$AAE?$AAr?$AAa?$AAs?$AAe?$AA?5?$AAP?$AAh?$AAy?$AAs?$AAi?$AAc?$AAa?$AAl?$AA?5?$AAB?$AAl?$AAo?$AAc?$AAk?$AA?5?$AA0?$AA?$AN?$AA?6?$AA?$AA@ 0001253c     main.obj
 0001:00001578       ??_C@_1FM@NNPDMOHD@?$AA?5?$AA?9?$AA?9?$AAF?$AAo?$AAr?$AAm?$AAa?$AAt?$AA?5?$AAF?$AAT?$AAL?$AA?5?$AA?$CI?$AAE?$AAr?$AAa?$AAs?$AAe?$AA?5?$AAF?$AAT?$AAL?$AA?5?$AAA?$AAr?$AAe?$AAa?$AA?5?$AA?$CL?$AA?5@ 00012578     main.obj
 0001:000015d4       ??_C@_1DI@FBDMLCKH@?$AA?$FL?$AAE?$AAR?$AAR?$AA?$FN?$AA?5?$AAF?$AAT?$AAL?$AA_?$AAC?$AAl?$AAo?$AAs?$AAe?$AA?$CI?$AA?$CJ?$AA?5?$AAF?$AAa?$AAi?$AAl?$AAu?$AAr?$AAe?$AA?$AN?$AA?6?$AA?$AA@ 000125d4     main.obj
 0001:00001610       ??_C@_1EC@DKHNPKLK@?$AA?$FL?$AAE?$AAR?$AAR?$AA?$FN?$AA?5?$AAW?$AAM?$AAR?$AA_?$AAF?$AAo?$AAr?$AAm?$AAa?$AAt?$AA_?$AAF?$AAT?$AAL?$AA?$CI?$AA?$CJ?$AA?5?$AAF?$AAa?$AAi?$AAl?$AAu?$AAr?$AAe?$AA?$AN?$AA?6@ 00012610     main.obj
 0001:00001658       ??_C@_1FM@NBJMMBKF@?$AA?5?$AA?$CL?$AA?$CL?$AAF?$AAo?$AAr?$AAm?$AAa?$AAt?$AA?5?$AAF?$AAT?$AAL?$AA?5?$AA?$CI?$AAE?$AAr?$AAa?$AAs?$AAe?$AA?5?$AAF?$AAT?$AAL?$AA?5?$AAA?$AAr?$AAe?$AAa?$AA?5?$AA?$CL?$AA?5@ 00012658     main.obj
 0001:000016b8       ??_C@_1FE@IEFEJBCE@?$AA?5?$AA?9?$AA?9?$AAF?$AAo?$AAr?$AAm?$AAa?$AAt?$AA?5?$AAV?$AAF?$AAL?$AA?5?$AA?$CI?$AAF?$AAo?$AAr?$AAm?$AAa?$AAt?$AA?5?$AAF?$AAI?$AAL?$AA?5?$AA?$CL?$AA?5?$AAV?$AAF?$AAL?$AA?5@ 000126b8     main.obj
 0001:0000170c       ??_C@_1DG@MOABNEMF@?$AA?$FL?$AAE?$AAR?$AAR?$AA?$FN?$AA?5?$AAV?$AAF?$AAL?$AA_?$AAO?$AAp?$AAe?$AAn?$AA?$CI?$AA?$CJ?$AA?5?$AAF?$AAa?$AAi?$AAl?$AAu?$AAr?$AAe?$AA?$AN?$AA?6?$AA?$AA@ 0001270c     main.obj
 0001:00001748       ??_C@_1EC@CPAJGOEB@?$AA?$FL?$AAE?$AAR?$AAR?$AA?$FN?$AA?5?$AAW?$AAM?$AAR?$AA_?$AAF?$AAo?$AAr?$AAm?$AAa?$AAt?$AA_?$AAV?$AAF?$AAL?$AA?$CI?$AA?$CJ?$AA?5?$AAF?$AAa?$AAi?$AAl?$AAu?$AAr?$AAe?$AA?$AN?$AA?6@ 00012748     main.obj
 0001:00001790       ??_C@_1FE@BGFCIMAH@?$AA?5?$AA?$CL?$AA?$CL?$AAF?$AAo?$AAr?$AAm?$AAa?$AAt?$AA?5?$AAV?$AAF?$AAL?$AA?5?$AA?$CI?$AAF?$AAo?$AAr?$AAm?$AAa?$AAt?$AA?5?$AAF?$AAI?$AAL?$AA?5?$AA?$CL?$AA?5?$AAV?$AAF?$AAL?$AA?5@ 00012790     main.obj
 0001:000017e8       ??_C@_1FM@MGHFGGF@?$AA?$FL?$AAI?$AAN?$AAF?$AA?$FN?$AA?5?$AAY?$AAo?$AAu?$AA?5?$AAc?$AAa?$AAn?$AA?5?$AAn?$AAo?$AAt?$AA?5?$AAu?$AAs?$AAe?$AA?5?$AAV?$AAF?$AAL?$AA?5?$AAb?$AAe?$AAf?$AAo?$AAr?$AAe@ 000127e8     main.obj
 0001:00001848       ??_C@_1EG@DDKGBEDH@?$AA?5?$AA?9?$AA?9?$AAF?$AAo?$AAr?$AAm?$AAa?$AAt?$AA?5?$AAF?$AAI?$AAL?$AA?5?$AA?$CI?$AAE?$AAr?$AAa?$AAs?$AAe?$AA?5?$AAA?$AAl?$AAl?$AA?5?$AAB?$AAl?$AAo?$AAc?$AAk?$AAs?$AA?$CJ@ 00012848     main.obj
 0001:00001890       ??_C@_1EC@LPAELHJB@?$AA?$FL?$AAE?$AAR?$AAR?$AA?$FN?$AA?5?$AAW?$AAM?$AAR?$AA_?$AAF?$AAo?$AAr?$AAm?$AAa?$AAt?$AA_?$AAF?$AAI?$AAL?$AA?$CI?$AA?$CJ?$AA?5?$AAF?$AAa?$AAi?$AAl?$AAu?$AAr?$AAe?$AA?$AN?$AA?6@ 00012890     main.obj
 0001:000018d4       ??_C@_1DI@BEBIFILH@?$AA?$FL?$AAE?$AAR?$AAR?$AA?$FN?$AA?5?$AAV?$AAF?$AAL?$AA_?$AAC?$AAl?$AAo?$AAs?$AAe?$AA?$CI?$AA?$CJ?$AA?5?$AAF?$AAa?$AAi?$AAl?$AAu?$AAr?$AAe?$AA?$AN?$AA?6?$AA?$AA@ 000128d4     main.obj
 0001:00001910       ??_C@_1EG@NJFOKKLJ@?$AA?5?$AA?$CL?$AA?$CL?$AAF?$AAo?$AAr?$AAm?$AAa?$AAt?$AA?5?$AAF?$AAI?$AAL?$AA?5?$AA?$CI?$AAE?$AAr?$AAa?$AAs?$AAe?$AA?5?$AAA?$AAl?$AAl?$AA?5?$AAB?$AAl?$AAo?$AAc?$AAk?$AAs?$AA?$CJ@ 00012910     main.obj
 0001:00001958       ??_C@_0HA@DPIGGGOH@CAUTION?$CB?5This?5will?5erase?5all?5DAT@ 00012958     main.obj
 0001:000019c8       ??_C@_0BC@IBBPODEC@?4?4?4TOC?5complete?$AN?6?$AA@ 000129c8     main.obj
 0001:000019dc       ??_C@_1CI@NJIFDNBF@?$AAT?$AAO?$AAC?$AA_?$AAW?$AAr?$AAi?$AAt?$AAe?$AA?5?$AAF?$AAa?$AAi?$AAl?$AAe?$AAd?$AA?$CB?$AA?$AN?$AA?6?$AA?$AA@ 000129dc     main.obj
 0001:00001a04       ??_C@_0CL@OEBIGAND@Resetting?5default?5TOC?4?4?4Wait?5to?5@ 00012a04     main.obj
 0001:00001a30       ??_C@_1CI@LDOLEINI@?$AA_?$AAO?$AAE?$AAM?$AAP?$AAl?$AAa?$AAt?$AAf?$AAo?$AAr?$AAm?$AAI?$AAn?$AAi?$AAt?$AA?4?$AA?$AN?$AA?6?$AA?$AA@ 00012a30     main.obj
 0001:00001a58       ??_C@_0EE@GLGGMDKK@ERROR?3?5OEMPlatformInit?3?5Failed?5t@ 00012a58     main.obj
 0001:00001a9c       ??_C@_0DI@JCBPOKAE@OEMPlatformInit?3?5Initialized?5USB@ 00012a9c     main.obj
 0001:00001ad8       ??_C@_0EB@GDGIADFH@OEMPlatformInit?3?5Failed?5to?5initi@ 00012ad8     main.obj
 0001:00001b1c       ??_C@_0CM@GDNMKJJL@OEMPlatformInit?3?5BootDevice?5?9?5US@ 00012b1c     main.obj
 0001:00001b48       ??_C@_0CN@PEJLNJPM@Waiting?5for?5Platform?5Builder?5to?5@ 00012b48     main.obj
 0001:00001b78       ??_C@_0DH@GHNFPPAJ@OEMPlatformInit?3?5Initialized?5USB@ 00012b78     main.obj
 0001:00001bb0       ??_C@_0EH@DKNHKMGN@OEMPlatformInit?3?5ERROR?3?5Failed?5t@ 00012bb0     main.obj
 0001:00001bf8       ??_C@_0CL@NKNOEBDA@OEMPlatformInit?3?5BootDevice?5?9?5US@ 00012bf8     main.obj
 0001:00001c24       ??_C@_0CN@HEJKGFJO@OEMPlatformInit?3?5Failed?5to?5initi@ 00012c24     main.obj
 0001:00001c54       ??_C@_0DF@KIGJGEBO@OEMPlatformInit?3?5ERROR?3?5unknown?5@ 00012c54     main.obj
 0001:00001c8c       ??_C@_0CB@MFPOKAPM@Don?8t?5support?5launch?5EBOOT?4bin?$AN?6@ 00012c8c     main.obj
 0001:00001cb0       ??_C@_0EA@LHIJENCD@OEMPlatformInit?5ERROR?3?5Failed?5to@ 00012cb0     main.obj
 0001:00001cf0       ??_C@_1EO@LBKDMMGG@?$AAO?$AAE?$AAM?$AAP?$AAl?$AAa?$AAt?$AAf?$AAo?$AAr?$AAm?$AAI?$AAn?$AAi?$AAt?$AA?3?$AA?5?$AAI?$AAM?$AAA?$AAG?$AAE?$AA_?$AAT?$AAY?$AAP?$AAE?$AA_?$AAR?$AAA?$AAM?$AAI@ 00012cf0     main.obj
 0001:00001d40       ??_C@_0CD@JHCCMGMB@Don?8t?5support?5launch?5STEPLDR?4bin@ 00012d40     main.obj
 0001:00001d64       ??_C@_0DD@LDKOJHEA@OEMPlatformInit?5ERROR?3?5unknown?5i@ 00012d64     main.obj
 0001:00001d98       ??_C@_0DI@CNJFMBKG@OEMPlatformInit?3?5ERROR_INVALID_T@ 00012d98     main.obj
 0001:00001dd0       ??_C@_0CA@PNKNLACN@?$AN?6Starting?5auto?9download?5?4?4?4?5?$AN?6?$AA@ 00012dd0     main.obj
 0001:00001df0       ??_C@_0CJ@PCGABLON@?$AN?6Launching?5image?5from?5boot?5medi@ 00012df0     main.obj
 0001:00001e1c       ??_C@_0BG@KFNKMLGD@?$AN?6Start?5TOC?5System?4?4?4?$AA@ 00012e1c     main.obj
 0001:00001e34       ??_C@_0BC@OAJKAFFP@?$AN?6Start?5PWRCTL?4?4?4?$AA@ 00012e34     main.obj
 0001:00001e48       ??_C@_0BD@CKPPHJCB@?$AN?6Start?5display?4?4?4?$AA@ 00012e48     main.obj
 0001:00001e5c       ??_C@_1DE@DLNCLHEO@?$AAw?$AAN?$AAU?$AAM?$AA_?$AAB?$AAL?$AAO?$AAC?$AAK?$AAS?$AA?5?$AA?3?$AA?5?$AA?$CF?$AAd?$AA?$CI?$AA0?$AAx?$AA?$CF?$AAx?$AA?$CJ?$AA?5?$AA?$AN?$AA?6?$AA?$AA@ 00012e5c     main.obj
 0001:00001e90       ??_C@_1GE@PICKJMPL@?$AAE?$AAR?$AAR?$AAO?$AAR?$AA?3?$AA?5?$AAB?$AAL?$AAF?$AAl?$AAa?$AAs?$AAh?$AAD?$AAo?$AAw?$AAn?$AAl?$AAo?$AAa?$AAd?$AA?3?$AA?5?$AAF?$AAM?$AAD?$AA_?$AAG?$AAe?$AAt?$AAI@ 00012e90     main.obj
 0001:00001ef4       ??_C@_0BE@IMHNCMBD@?$AN?6Get?5Flash?5Info?4?4?4?$AA@ 00012ef4     main.obj
 0001:00001f08       ??_C@_1HI@LPCNMJDK@?$AAW?$AAA?$AAR?$AAN?$AAI?$AAN?$AAG?$AA?3?$AA?5?$AAO?$AAE?$AAM?$AAP?$AAl?$AAa?$AAt?$AAf?$AAo?$AAr?$AAm?$AAI?$AAn?$AAi?$AAt?$AA?5?$AAf?$AAa?$AAi?$AAl?$AAe?$AAd?$AA?5@ 00012f08     main.obj
 0001:00001f80       ??_C@_1BE@CFMGMFAD@?$AAB?$AAP?$AA_?$AAI?$AAn?$AAi?$AAt?$AA?$AN?$AA?6?$AA?$AA@ 00012f80     main.obj
 0001:00001f94       ??_C@_0M@GLALLEKD@Sep?526?52013?$AA@ 00012f94     main.obj
 0001:00001fa0       ??_C@_0GC@DJPDHCBN@Microsoft?5Windows?5CE?5Bootloader?5@ 00012fa0     main.obj
 0001:00002004       ??_C@_1CI@MAEMAKDO@?$AA?$CL?$AAO?$AAE?$AAM?$AAP?$AAl?$AAa?$AAt?$AAf?$AAo?$AAr?$AAm?$AAI?$AAn?$AAi?$AAt?$AA?4?$AA?$AN?$AA?6?$AA?$AA@ 00013004     main.obj
 0001:0000202c       ??_C@_0BP@DPJKPABD@ERROR?3?5OEMLaunch?3?5Halting?4?4?4?$AN?6?$AA@ 0001302c     main.obj
 0001:00002050       ??_C@_0FE@KMLFCHEB@INFO?3?5OEMLaunch?3?5Jumping?5to?5Phys@ 00013050     main.obj
 0001:000020a4       ??_C@_1BA@FDKAAGHI@?$AA0?$AAx?$AA?$CF?$AA0?$AA2?$AAx?$AA?5?$AA?$AA@ 000130a4     main.obj
 0001:000020b4       ??_C@_1CC@JPOBLKHL@?$AAp?$AAB?$AAS?$AAP?$AAA?$AAr?$AAg?$AAs?$AA?5?$AA?3?$AA0?$AAx?$AA?$CF?$AAx?$AA?$AN?$AA?6?$AA?$AA@ 000130b4     main.obj
 0001:000020d8       ??_C@_1FE@PFELMMJG@?$AAI?$AAN?$AAF?$AAO?$AA?3?$AA?5?$AAu?$AAs?$AAi?$AAn?$AAg?$AA?5?$AAT?$AAO?$AAC?$AA?$FL?$AA?$CF?$AAd?$AA?$FN?$AA?5?$AAd?$AAw?$AAJ?$AAu?$AAm?$AAp?$AAA?$AAd?$AAd?$AAr?$AAe?$AAs@ 000130d8     main.obj
 0001:0000212c       ??_C@_0DE@KBGBIAGB@ERROR?3?5OEMLaunch?3?5EbootWaitForHo@ 0001312c     main.obj
 0001:00002160       ??_C@_0BG@KOENJGFK@Wait?5For?5Connect?4?4?4?$AN?6?$AA@ 00013160     main.obj
 0001:00002178       ??_C@_0CF@EHDJNBMM@Eboot?5image?5can?8t?5launch?5from?5ra@ 00013178     main.obj
 0001:000021a0       ??_C@_0CH@FDBDCICC@Stepldr?5image?5can?8t?5launch?5from?5@ 000131a0     main.obj
 0001:000021c8       ??_C@_0CE@BHICNGLD@You?5should?5program?5it?5into?5flash@ 000131c8     main.obj
 0001:000021f0       ??_C@_0EH@MIJPKFMG@INFO?3?5Eboot?5image?5stored?5to?5Smar@ 000131f0     main.obj
 0001:00002238       ??_C@_0CK@EMMDCFIP@INFO?3?5using?5TOC?$FL?$CFd?$FN?5dwJumpAddres@ 00013238     main.obj
 0001:00002268       ??_C@_0EP@INKDBDBG@?$CK?$CK?$CK?5OEMLaunch?5ERROR?3?5TOC_Write?5f@ 00013268     main.obj
 0001:000022b8       ??_C@_0EN@FILDIMK@INFO?3?5Step?5loader?5image?5stored?5t@ 000132b8     main.obj
 0001:00002308       ??_C@_0DK@NMEMLEFF@ERROR?3?5OEMLaunch?3?5Failed?5to?5stor@ 00013308     main.obj
 0001:00002344       ??_C@_1BM@FHAHCIEC@?$AA?$CL?$AAO?$AAE?$AAM?$AAL?$AAa?$AAu?$AAn?$AAc?$AAh?$AA?4?$AA?$AN?$AA?6?$AA?$AA@ 00013344     main.obj
 0001:000024c0       ??_C@_1EK@OPPDNHBL@?$AAE?$AAR?$AAR?$AAO?$AAR?$AA?3?$AA?5?$AAP?$AAr?$AAo?$AAb?$AAe?$AA?3?$AA?5?$AAC?$AAa?$AAn?$AA?5?$AAn?$AAo?$AAt?$AA?5?$AAf?$AAi?$AAn?$AAd?$AA?5?$AAD?$AAM?$AA9?$AA0?$AA0@ 000134c0     dm9000dbg.obj
 0001:00002510       ??_C@_1EG@NNHFPGGK@?$AAI?$AAN?$AAF?$AAO?$AA?3?$AA?5?$AAP?$AAr?$AAo?$AAb?$AAe?$AA?3?$AA?5?$AAD?$AAM?$AA9?$AA0?$AA0?$AA0?$AA?5?$AAi?$AAs?$AA?5?$AAd?$AAe?$AAt?$AAe?$AAc?$AAt?$AAe?$AAd?$AA?4@ 00013510     dm9000dbg.obj
 0001:00002558       ??_C@_1CI@FEIFDDOP@?$AAD?$AAM?$AA9?$AA0?$AA0?$AA0?$AA?5?$AAI?$AAD?$AA?5?$AAi?$AAs?$AA?5?$AA0?$AAx?$AA?$CF?$AAx?$AA?$AN?$AA?6?$AA?$AA@ 00013558     dm9000dbg.obj
 0001:00002580       ??_C@_1FC@FLIHLGKI@?$AAD?$AAM?$AA9?$AA0?$AA0?$AA0?$AA?3?$AA?5?$AAM?$AAA?$AAC?$AA?5?$AAA?$AAd?$AAd?$AAr?$AAe?$AAs?$AAs?$AA?3?$AA?5?$AA?$CF?$AAx?$AA?3?$AA?$CF?$AAx?$AA?3?$AA?$CF?$AAx?$AA?3?$AA?$CF?$AAx@ 00013580     dm9000dbg.obj
 0001:00002668       ??_C@_1CE@PPOLGCBE@?$AA?9?$AAI?$AAn?$AAi?$AAt?$AAE?$AAt?$AAh?$AAD?$AAe?$AAv?$AAi?$AAc?$AAe?$AA?4?$AA?$AN?$AA?6?$AA?$AA@ 00013668     ether.obj
 0001:00002690       ??_C@_1FK@CKEKMON@?$AAE?$AAR?$AAR?$AAO?$AAR?$AA?3?$AA?5?$AAI?$AAn?$AAi?$AAt?$AAE?$AAt?$AAh?$AAD?$AAe?$AAv?$AAi?$AAc?$AAe?$AA?3?$AA?5?$AAI?$AAn?$AAv?$AAa?$AAl?$AAi?$AAd?$AA?5?$AAM?$AAA@ 00013690     ether.obj
 0001:000026f0       ??_C@_1IE@KMGADJHJ@?$AAE?$AAR?$AAR?$AAO?$AAR?$AA?3?$AA?5?$AAI?$AAn?$AAi?$AAt?$AAE?$AAt?$AAh?$AAD?$AAe?$AAv?$AAi?$AAc?$AAe?$AA?3?$AA?5?$AAF?$AAa?$AAi?$AAl?$AAe?$AAd?$AA?5?$AAt?$AAo?$AA?5@ 000136f0     ether.obj
 0001:00002774       ??_C@_1CE@DGCLJFOI@?$AA?$CL?$AAI?$AAn?$AAi?$AAt?$AAE?$AAt?$AAh?$AAD?$AAe?$AAv?$AAi?$AAc?$AAe?$AA?4?$AA?$AN?$AA?6?$AA?$AA@ 00013774     ether.obj
 0001:00002798       ??_C@_0CM@PEMGPOKC@INFO?3?5OEMEthSendFrame?3?5retrying?5@ 00013798     ether.obj
 0001:00002858       ??_C@_1DG@MKHMFGCD@?$AAO?$AAE?$AAM?$AAM?$AAa?$AAp?$AAM?$AAe?$AAm?$AAA?$AAd?$AAd?$AAr?$AA?5?$AA0?$AAx?$AA?$CF?$AAx?$AA?5?$AA?5?$AA0?$AAx?$AA?$CF?$AAx?$AA?$AN?$AA?6?$AA?$AA@ 00013858     flash.obj
 0001:00002890       ??_C@_0N@CPDDMNGC@BootCfg?5?$HL?5?$AN?6?$AA@ 00013890     nand.obj
 0001:000028a0       ??_C@_0BG@EPEDPIMK@?5?5ConfigFlags?3?50x?$CFx?$AN?6?$AA@ 000138a0     nand.obj
 0001:000028b8       ??_C@_0BE@FIJGOOJJ@?5?5BootDelay?3?50x?$CFx?$AN?6?$AA@ 000138b8     nand.obj
 0001:000028cc       ??_C@_0BE@HMEKOBIH@?5?5ImageIndex?3?5?$CFd?5?$AN?6?$AA@ 000138cc     nand.obj
 0001:000028e0       ??_C@_0BE@LCOFHPJL@?5?5Boot?5Device?3?5?$CFs?$AN?6?$AA@ 000138e0     nand.obj
 0001:000028f4       ??_C@_0L@PDINKPHL@?5?5IP?3?5?$CFs?$AN?6?$AA@ 000138f4     nand.obj
 0001:00002900       ??_C@_0CD@DDINOIJK@?5?5MAC?5Address?3?5?$CFB?3?$CFB?3?$CFB?3?$CFB?3?$CFB?3?$CFB@ 00013900     nand.obj
 0001:00002924       ??_C@_0N@HMPKPEGF@?5?5Port?3?5?$CFs?$AN?6?$AA@ 00013924     nand.obj
 0001:00002934       ??_C@_0BD@JFJMJPAF@?5?5SubnetMask?3?5?$CFs?$AN?6?$AA@ 00013934     nand.obj
 0001:00002948       ??_C@_03LFNJCDHL@?$HN?$AN?6?$AA@ 00013948     nand.obj
 0001:0000294c       ??_C@_0BC@CMMAAAKE@?$CLBootConfigInit?$AN?6?$AA@ 0001394c     nand.obj
 0001:00002960       ??_C@_0O@GDPGGFHK@192?4198?41?4101?$AA@ 00013960     nand.obj
 0001:00002970       ??_C@_0O@HGNGLBEC@255?4255?4255?40?$AA@ 00013970     nand.obj
 0001:00002980       ??_C@_0BC@CCLMLMCB@?9BootConfigInit?$AN?6?$AA@ 00013980     nand.obj
 0001:00002994       ??_C@_0BO@POEHNODL@?5?5sgList?$FL?$CFu?$FN?4dwSector?3?50x?$CFx?$AN?6?$AA@ 00013994     nand.obj
 0001:000029b4       ??_C@_0BO@GPFMIPDF@?5?5sgList?$FL?$CFu?$FN?4dwLength?3?50x?$CFx?$AN?6?$AA@ 000139b4     nand.obj
 0001:000029d4       ??_C@_0L@GODFOKNP@ID?$FL?$CFu?$FN?5?$HL?$AN?6?$AA@ 000139d4     nand.obj
 0001:000029e0       ??_C@_0BE@GDEGIDNH@?5?5dwVersion?3?50x?$CFx?$AN?6?$AA@ 000139e0     nand.obj
 0001:000029f4       ??_C@_0BG@CIGDJAF@?5?5dwSignature?3?50x?$CFx?$AN?6?$AA@ 000139f4     nand.obj
 0001:00002a0c       ??_C@_0BB@FDNDAFHN@?5?5String?3?5?8?$CFs?8?$AN?6?$AA@ 00013a0c     nand.obj
 0001:00002a20       ??_C@_0BG@JPPPMJHI@?5?5dwImageType?3?50x?$CFx?$AN?6?$AA@ 00013a20     nand.obj
 0001:00002a38       ??_C@_0BH@GIKFDOPM@?5?5dwTtlSectors?3?50x?$CFx?$AN?6?$AA@ 00013a38     nand.obj
 0001:00002a50       ??_C@_0BI@KMNKEIIG@?5?5dwLoadAddress?3?50x?$CFx?$AN?6?$AA@ 00013a50     nand.obj
 0001:00002a68       ??_C@_0BI@DOAODCJF@?5?5dwJumpAddress?3?50x?$CFx?$AN?6?$AA@ 00013a68     nand.obj
 0001:00002a80       ??_C@_0BI@GHCLPFMO@?5?5dwStoreOffset?3?50x?$CFx?$AN?6?$AA@ 00013a80     nand.obj
 0001:00002a98       ??_C@_0CA@NEPLBIBK@chainInfo?4dwLoadAddress?3?50X?$CFX?$AN?6?$AA@ 00013a98     nand.obj
 0001:00002ab8       ??_C@_0CB@OANIHCAF@chainInfo?4dwFlashAddress?3?50X?$CFX?$AN?6@ 00013ab8     nand.obj
 0001:00002adc       ??_C@_0BL@PEHJLAFE@chainInfo?4dwLength?3?50X?$CFX?$AN?6?$AA@ 00013adc     nand.obj
 0001:00002af8       ??_C@_0CL@GIIMEPHI@?$CB?$CB?$CBInvalid?5Image?5Descriptor?3?5id?$FL@ 00013af8     nand.obj
 0001:00002b24       ??_C@_0BE@ENIFMMGA@g_dwTocEntry?5?3?5?$CFd?$AN?6?$AA@ 00013b24     nand.obj
 0001:00002b38       ??_C@_07PPPGNDLI@TOC?5?$HL?$AN?6?$AA@ 00013b38     nand.obj
 0001:00002b40       ??_C@_0BE@LKCNKEHD@dwSignature?3?50x?$CFx?$AN?6?$AA@ 00013b40     nand.obj
 0001:00002b54       ??_C@_09IMLFAILL@eboot?4nb0?$AA@ 00013b54     nand.obj
 0001:00002b60       ??_C@_0CO@ODPPDMDA@ERROR?3?5OEMLaunch?3?5unknown?5image?5@ 00013b60     nand.obj
 0001:00002b90       ??_C@_0CN@IACCBENF@?$AN?6?$CK?$CK?$CK?5WARNING?3?5TOC_Init?5blasting@ 00013b90     nand.obj
 0001:00002bc0       ??_C@_0GH@LGOMHGNJ@TOC_Init?3?5dwEntry?3?$CFu?0?5dwImageTyp@ 00013bc0     nand.obj
 0001:00002c28       ??_C@_0M@MACJOMKC@?9TOC_Read?$AN?6?$AA@ 00013c28     nand.obj
 0001:00002c38       ??_C@_0EP@GMLODEBC@TOC_Read?5WARN?3?5Eboot?5version?5mis@ 00013c38     nand.obj
 0001:00002c88       ??_C@_0CI@ELLBPMCL@Invalidating?5TOC?5for?5re?9initiali@ 00013c88     nand.obj
 0001:00002cb0       ??_C@_0CO@LOFHMIMD@TOC_Read?5ERROR?3?5INVALID_TOC?5Sign@ 00013cb0     nand.obj
 0001:00002ce0       ??_C@_1CM@HJIFBJAP@?$AAT?$AAO?$AAC?$AA_?$AAR?$AAe?$AAa?$AAd?$AA?5?$AAF?$AAa?$AAi?$AAl?$AAe?$AAd?$AA?5?$AA?$CB?$AA?$CB?$AA?$CB?$AA?$AN?$AA?6?$AA?$AA@ 00013ce0     nand.obj
 0001:00002d0c       ??_C@_1CK@MPNMPIKC@?$AAT?$AAo?$AAo?$AA?5?$AAm?$AAa?$AAn?$AAy?$AA?5?$AAB?$AAa?$AAd?$AA?5?$AAB?$AAl?$AAo?$AAc?$AAk?$AA?$AN?$AA?6?$AA?$AA@ 00013d0c     nand.obj
 0001:00002d38       ??_C@_1CO@PHLOKOH@?$AAB?$AAa?$AAd?$AA?5?$AAB?$AAl?$AAo?$AAc?$AAk?$AA?5?$AA?$CF?$AAd?$AA?5?$AAS?$AAk?$AAi?$AAp?$AAp?$AAe?$AAd?$AA?$AN?$AA?6?$AA?$AA@ 00013d38     nand.obj
 0001:00002d68       ??_C@_1GG@MEIJHOLM@?$AA?$FL?$AAE?$AAR?$AAR?$AA?$FN?$AA?5?$AAF?$AAI?$AAL?$AA?5?$AAR?$AAe?$AAa?$AAd?$AA?5?$AAE?$AAr?$AAr?$AAo?$AAr?$AA?5?$AA?$EA?$AA?5?$AA?$CF?$AAd?$AA?5?$AAB?$AAl?$AAo?$AAc?$AAk?$AA?5@ 00013d68     nand.obj
 0001:00002dd0       ??_C@_0CA@JBNMNLHC@TOC_Read?5ERROR?3?5no?5boot?5media?$AN?6?$AA@ 00013dd0     nand.obj
 0001:00002df0       ??_C@_0L@FGOFEBDH@TOC_Read?$AN?6?$AA@ 00013df0     nand.obj
 0001:00002e00       ??_C@_1EC@EAAHGAJD@?$AA?$FL?$AAO?$AAK?$AA?$FN?$AA?5?$AAW?$AAr?$AAi?$AAt?$AAe?$AA?5?$AA?$CF?$AAd?$AA?5?$AAt?$AAh?$AA?5?$AAB?$AAl?$AAo?$AAc?$AAk?$AA?5?$AAS?$AAu?$AAc?$AAc?$AAe?$AAs?$AAs?$AA?$AN?$AA?6@ 00013e00     nand.obj
 0001:00002e44       ??_C@_0N@FPAAHDAA@?9TOC_Write?$AN?6?$AA@ 00013e44     nand.obj
 0001:00002e54       ??_C@_1CO@IDADLJPD@?$AAT?$AAO?$AAC?$AA_?$AAW?$AAr?$AAi?$AAt?$AAe?$AA?5?$AAF?$AAa?$AAi?$AAl?$AAe?$AAd?$AA?5?$AA?$CB?$AA?$CB?$AA?$CB?$AA?$AN?$AA?6?$AA?$AA@ 00013e54     nand.obj
 0001:00002e88       ??_C@_1GC@LPIGNJBC@?$AA?$FL?$AAE?$AAR?$AAR?$AA?$FN?$AA?5?$AAV?$AAe?$AAr?$AAi?$AAf?$AAy?$AA?5?$AAE?$AAr?$AAr?$AAo?$AAr?$AA?5?$AA?$EA?$AA?5?$AA?$CF?$AAd?$AA?5?$AAB?$AAl?$AAo?$AAc?$AAk?$AA?5?$AA?$CF?$AAd@ 00013e88     nand.obj
 0001:00002ef0       ??_C@_1GI@PCIGLLGO@?$AA?$FL?$AAE?$AAR?$AAR?$AA?$FN?$AA?5?$AAF?$AAI?$AAL?$AA?5?$AAW?$AAr?$AAi?$AAt?$AAe?$AA?5?$AAE?$AAr?$AAr?$AAo?$AAr?$AA?5?$AA?$EA?$AA?5?$AA?$CF?$AAd?$AA?5?$AAB?$AAl?$AAo?$AAc?$AAk@ 00013ef0     nand.obj
 0001:00002f58       ??_C@_1FI@OLPFHNL@?$AA?$FL?$AAE?$AAR?$AAR?$AA?$FN?$AA?5?$AAF?$AAI?$AAL?$AA?5?$AAE?$AAr?$AAa?$AAs?$AAe?$AA?5?$AAE?$AAr?$AAr?$AAo?$AAr?$AA?5?$AA?$EA?$AA?5?$AA?$CF?$AAd?$AA?5?$AAb?$AAl?$AAo?$AAc?$AAk@ 00013f58     nand.obj
 0001:00002fb0       ??_C@_0DF@ECGNLKOF@TOC_Write?5ERROR?3?5INVALID_IMAGE?$FL?$CF@ 00013fb0     nand.obj
 0001:00002fe8       ??_C@_0CP@EFNMKHDO@TOC_Write?5ERROR?3?5INVALID_TOC?5Sig@ 00013fe8     nand.obj
 0001:00003018       ??_C@_0CA@JLLBILBC@TOC_Write?5WARN?3?5no?5boot?5media?$AN?6?$AA@ 00014018     nand.obj
 0001:00003038       ??_C@_0N@PPOFKMNN@?$CLTOC_Write?$AN?6?$AA@ 00014038     nand.obj
 0001:00003048       ??_C@_0BL@IBNCBFJM@?$FLDump?5XIP?5Chain?5Summary?$FN?$AN?6?$AA@ 00014048     nand.obj
 0001:00003064       ??_C@_0BC@PLGJLODE@?5?9?5pvAddr?3?50x?$CFx?$AN?6?$AA@ 00014064     nand.obj
 0001:00003078       ??_C@_0BG@CEJEPBJC@?5?9?5dwMaxLength?5?3?5?$CFd?$AN?6?$AA@ 00014078     nand.obj
 0001:00003090       ??_C@_0BE@JKLHJCHG@?5?9?5usOrder?5?3?50x?$CFx?$AN?6?$AA@ 00014090     nand.obj
 0001:000030a4       ??_C@_0BE@HBHGBOLJ@?5?9?5usFlags?5?3?50x?$CFx?$AN?6?$AA@ 000140a4     nand.obj
 0001:000030b8       ??_C@_0BF@DJKNPPCN@?5?9?5reserved?5?3?50x?$CFx?$AN?6?$AA@ 000140b8     nand.obj
 0001:000030d0       ??_C@_1DG@POCFDGNP@?$AA?9?$AAW?$AAr?$AAi?$AAt?$AAe?$AAO?$AAS?$AAI?$AAm?$AAa?$AAg?$AAe?$AAT?$AAo?$AAB?$AAo?$AAo?$AAt?$AAM?$AAe?$AAd?$AAi?$AAa?$AA?$AN?$AA?6?$AA?$AA@ 000140d0     nand.obj
 0001:00003108       ??_C@_0GF@IDOMNDPN@ERROR?3?5StoreImageToBootMedia?3?5Fa@ 00014108     nand.obj
 0001:00003170       ??_C@_1KO@MJDOHGFA@?$AAE?$AAR?$AAR?$AAO?$AAR?$AA?3?$AA?5?$AAS?$AAt?$AAo?$AAr?$AAe?$AAI?$AAm?$AAa?$AAg?$AAe?$AAT?$AAo?$AAB?$AAo?$AAo?$AAt?$AAM?$AAe?$AAd?$AAi?$AAa?$AA?3?$AA?5?$AAF?$AAa@ 00014170     nand.obj
 0001:00003220       ??_C@_1EG@FCAEHLKA@?$AAW?$AAr?$AAi?$AAt?$AAt?$AAe?$AAn?$AA?5?$AAC?$AAh?$AAa?$AAi?$AAn?$AA?5?$AAR?$AAe?$AAg?$AAi?$AAo?$AAn?$AA?5?$AAt?$AAo?$AA?5?$AAt?$AAh?$AAe?$AA?5?$AAF?$AAl?$AAa?$AAs@ 00014220     nand.obj
 0001:00003268       ??_C@_1HA@BPAKPOPG@?$AAL?$AAo?$AAa?$AAd?$AAA?$AAd?$AAd?$AAr?$AAe?$AAs?$AAs?$AA?5?$AA?$DN?$AA?5?$AA0?$AAx?$AA?$CF?$AAX?$AA?$DL?$AA?5?$AAF?$AAl?$AAa?$AAs?$AAh?$AAA?$AAd?$AAd?$AAr?$AAe?$AAs?$AAs@ 00014268     nand.obj
 0001:000032d8       ??_C@_1LO@FPDKGGPD@?$AA?5?$AAm?$AAe?$AAm?$AAc?$AAp?$AAy?$AA?5?$AA?3?$AA?5?$AAg?$AA_?$AAp?$AAT?$AAO?$AAC?$AA?9?$AA?$DO?$AAc?$AAh?$AAa?$AAi?$AAn?$AAI?$AAn?$AAf?$AAo?$AA?4?$AAd?$AAw?$AAL?$AAo@ 000142d8     nand.obj
 0001:00003398       ??_C@_1GI@JJEJHBOH@?$AAU?$AAp?$AAd?$AAa?$AAt?$AAe?$AA?5?$AAL?$AAa?$AAs?$AAt?$AA?5?$AAT?$AAO?$AAC?$AA?$FL?$AA?$CF?$AAd?$AA?$FN?$AA?5?$AAE?$AAn?$AAt?$AAr?$AAy?$AA?5?$AAt?$AAo?$AA?5?$AAT?$AAO?$AAC@ 00014398     nand.obj
 0001:00003400       ??_C@_0BJ@KKEBOGIN@BIN?5Region?5Number?5?3?5?$CFd?$AN?6?$AA@ 00014400     nand.obj
 0001:0000341c       ??_C@_1BM@PDLLOMNB@?$AAn?$AAC?$AAo?$AAu?$AAn?$AAt?$AA?5?$AA?$DN?$AA?5?$AA?$CF?$AAd?$AA?5?$AA?6?$AA?$AA@ 0001441c     nand.obj
 0001:00003438       ??_C@_1IG@CHAJDFJE@?$AAE?$AAR?$AAR?$AAO?$AAR?$AA?3?$AA?5?$AAW?$AAr?$AAi?$AAt?$AAe?$AAO?$AAS?$AAI?$AAm?$AAa?$AAg?$AAe?$AAT?$AAo?$AAB?$AAo?$AAo?$AAt?$AAM?$AAe?$AAd?$AAi?$AAa?$AA?3?$AA?5@ 00014438     nand.obj
 0001:000034c0       ??_C@_1BO@IDHKDHGG@?$AAd?$AAw?$AAB?$AAl?$AAo?$AAc?$AAk?$AA?5?$AA?$DN?$AA?5?$AA?$CF?$AAd?$AA?5?$AA?6?$AA?$AA@ 000144c0     nand.obj
 0001:000034e0       ??_C@_1II@PAOHGILJ@?$AAW?$AAr?$AAi?$AAt?$AAi?$AAn?$AAg?$AA?5?$AAs?$AAi?$AAn?$AAg?$AAl?$AAe?$AA?5?$AAr?$AAe?$AAg?$AAi?$AAo?$AAn?$AA?1?$AAm?$AAu?$AAl?$AAt?$AAi?$AA?9?$AAr?$AAe?$AAg?$AAi@ 000144e0     nand.obj
 0001:00003568       ??_C@_1DO@OHELMHEB@?$AAd?$AAw?$AAM?$AAa?$AAx?$AAR?$AAe?$AAg?$AAi?$AAo?$AAn?$AAL?$AAe?$AAn?$AAg?$AAt?$AAh?$AA?$FL?$AA?$CF?$AAu?$AA?$FN?$AA?3?$AA?5?$AA0?$AAx?$AA?$CF?$AAx?$AA?5?$AA?$AN?$AA?6?$AA?$AA@ 00014568     nand.obj
 0001:000035a8       ??_C@_1HE@PPADBCIO@?$AAB?$AAI?$AAN?$AAF?$AAS?$AAP?$AAa?$AAr?$AAt?$AAM?$AAa?$AAx?$AAL?$AAe?$AAn?$AAg?$AAt?$AAh?$AA?$FL?$AA?$CF?$AAu?$AA?$FN?$AA?3?$AA?5?$AA0?$AAx?$AA?$CF?$AAx?$AA?0?$AA?5?$AAT?$AAt@ 000145a8     nand.obj
 0001:00003620       ??_C@_1FG@KMPOIODG@?$AAW?$AAr?$AAi?$AAt?$AAi?$AAn?$AAg?$AA?5?$AAm?$AAu?$AAl?$AAt?$AAi?$AA?9?$AAr?$AAe?$AAg?$AAi?$AAo?$AAn?$AAs?$AA?5?$AA?3?$AA?5?$AAT?$AAo?$AAt?$AAa?$AAl?$AA?5?$AA?$CF?$AAd@ 00014620     nand.obj
 0001:00003678       ??_C@_0EP@NGMELKFI@INFO?3?5?$CFs?3?5?$FL?$CFd?$FN?5Found?5?8chain?5info@ 00014678     nand.obj
 0001:000036c8       ??_C@_1HE@HNAKDIOL@?$AAF?$AAo?$AAu?$AAn?$AAd?$AA?5?$AAt?$AAh?$AAe?$AA?5?$AAC?$AAh?$AAa?$AAi?$AAn?$AA?5?$AAr?$AAe?$AAg?$AAi?$AAo?$AAn?$AA?3?$AA?5?$AAS?$AAt?$AAa?$AAr?$AAt?$AAA?$AAd?$AAd@ 000146c8     nand.obj
 0001:0000373c       ??_C@_0DH@EIKLFMII@Not?5Found?5pExtPointer?0?5Check?5if?5@ 0001473c     nand.obj
 0001:00003774       ??_C@_0BC@IKEOGALG@chain?5information?$AA@ 00014774     nand.obj
 0001:00003788       ??_C@_0DE@DNDHKIDM@INFO?3?5?$CFs?3?5?$FL?$CFd?$FN?5Found?5chain?5exten@ 00014788     nand.obj
 0001:000037bc       ??_C@_0BI@OJAPOKOJ@WriteOSImageToBootMedia?$AA@ 000147bc     nand.obj
 0001:000037d8       ??_C@_0EA@FKPGOBJL@INFO?3?5?$CFs?3?5?$FL?$CFd?$FN?5RegionStart?30x?$CFx?0@ 000147d8     nand.obj
 0001:00003818       ??_C@_1CK@MNFIFCLN@?$AAE?$AAR?$AAR?$AAO?$AAR?$AA?3?$AA?5?$AAI?$AAN?$AAV?$AAA?$AAL?$AAI?$AAD?$AA_?$AAT?$AAO?$AAC?$AA?$AN?$AA?6?$AA?$AA@ 00014818     nand.obj
 0001:00003848       ??_C@_1FK@CHPOOIKC@?$AAW?$AAA?$AAR?$AAN?$AA?3?$AA?5?$AAW?$AAr?$AAi?$AAt?$AAe?$AAO?$AAS?$AAI?$AAm?$AAa?$AAg?$AAe?$AAT?$AAo?$AAB?$AAo?$AAo?$AAt?$AAM?$AAe?$AAd?$AAi?$AAa?$AA?3?$AA?5?$AAI@ 00014848     nand.obj
 0001:000038a8       ??_C@_1EC@PDOLJFJI@?$AAE?$AAr?$AAa?$AAs?$AAe?$AA?5?$AAB?$AAl?$AAo?$AAc?$AAk?$AA?5?$AAf?$AAr?$AAo?$AAm?$AA?5?$AA0?$AAx?$AA?$CF?$AAx?$AA?0?$AA?5?$AAt?$AAo?$AA?5?$AA0?$AAx?$AA?$CF?$AAx?$AA?5?$AA?6@ 000148a8     nand.obj
 0001:000038ec       ??_C@_1DE@JIMLNKLO@?$AAg?$AA_?$AAd?$AAw?$AAM?$AAB?$AAR?$AAS?$AAe?$AAc?$AAt?$AAo?$AAr?$AAN?$AAu?$AAm?$AA?5?$AA?$DN?$AA?5?$AA0?$AAx?$AA?$CF?$AAx?$AA?$AN?$AA?6?$AA?$AA@ 000148ec     nand.obj
 0001:00003920       ??_C@_1HA@HNEHDFFG@?$AAE?$AAR?$AAR?$AAO?$AAR?$AA?3?$AA?5?$AAW?$AAr?$AAi?$AAt?$AAe?$AAO?$AAS?$AAI?$AAm?$AAa?$AAg?$AAe?$AAT?$AAo?$AAB?$AAo?$AAo?$AAt?$AAM?$AAe?$AAd?$AAi?$AAa?$AA?3?$AA?5@ 00014920     nand.obj
 0001:00003990       ??_C@_1MG@MHFAIABJ@?$AA?$CL?$AAW?$AAr?$AAi?$AAt?$AAe?$AAO?$AAS?$AAI?$AAm?$AAa?$AAg?$AAe?$AAT?$AAo?$AAB?$AAo?$AAo?$AAt?$AAM?$AAe?$AAd?$AAi?$AAa?$AA?3?$AA?5?$AAg?$AA_?$AAd?$AAw?$AAT?$AAo@ 00014990     nand.obj
 0001:00003a58       ??_C@_1DG@PLPIMDGL@?$AA?$CL?$AAW?$AAr?$AAi?$AAt?$AAe?$AAO?$AAS?$AAI?$AAm?$AAa?$AAg?$AAe?$AAT?$AAo?$AAB?$AAo?$AAo?$AAt?$AAM?$AAe?$AAd?$AAi?$AAa?$AA?$AN?$AA?6?$AA?$AA@ 00014a58     nand.obj
 0001:00003a90       ??_C@_1NA@EBFDCEFM@?$AAR?$AAe?$AAa?$AAd?$AAO?$AAS?$AAI?$AAm?$AAa?$AAg?$AAe?$AAF?$AAr?$AAo?$AAm?$AAB?$AAo?$AAo?$AAt?$AAM?$AAe?$AAd?$AAi?$AAa?$AA?3?$AA?5?$AAE?$AAR?$AAR?$AAO?$AAR?$AA_@ 00014a90     nand.obj
 0001:00003b60       ??_C@_1DI@KLCKJDOE@?$AA_?$AAR?$AAe?$AAa?$AAd?$AAO?$AAS?$AAI?$AAm?$AAa?$AAg?$AAe?$AAF?$AAr?$AAo?$AAm?$AAB?$AAo?$AAo?$AAt?$AAM?$AAe?$AAd?$AAi?$AAa?$AA?$AN?$AA?6?$AA?$AA@ 00014b60     nand.obj
 0001:00003b98       ??_C@_1FA@LCKCOMNP@?$AA?$AN?$AA?6?$AAR?$AAe?$AAa?$AAd?$AA?5?$AAO?$AAS?$AA?5?$AAi?$AAm?$AAa?$AAg?$AAe?$AA?5?$AAt?$AAo?$AA?5?$AAB?$AAo?$AAo?$AAt?$AAM?$AAe?$AAd?$AAi?$AAa?$AA?5?$AAS?$AAu?$AAc@ 00014b98     nand.obj
 0001:00003be8       ??_C@_1EC@MGJCGBIB@?$AA?$FL?$AAE?$AAR?$AAR?$AA?$FN?$AA?5?$AAV?$AAF?$AAL?$AA?5?$AAR?$AAe?$AAa?$AAd?$AA?5?$AAE?$AAr?$AAr?$AAo?$AAr?$AA?5?$AA?$EA?$AA?5?$AA?$CF?$AAd?$AA?5?$AAp?$AAa?$AAg?$AAe?$AA?$AN?$AA?6@ 00014be8     nand.obj
 0001:00003c30       ??_C@_1FA@BOPBJJCL@?$AAR?$AAe?$AAa?$AAd?$AA?5?$AAO?$AAS?$AA?5?$AAi?$AAm?$AAa?$AAg?$AAe?$AA?5?$AAt?$AAo?$AA?5?$AAB?$AAo?$AAo?$AAt?$AAM?$AAe?$AAd?$AAi?$AAa?$AA?5?$AAF?$AAa?$AAi?$AAl?$AAe@ 00014c30     nand.obj
 0001:00003c80       ??_C@_1DM@JPMGMLFA@?$AAR?$AAe?$AAa?$AAd?$AA?5?$AAO?$AAS?$AA?5?$AAi?$AAm?$AAa?$AAg?$AAe?$AA?5?$AAt?$AAo?$AA?5?$AAB?$AAo?$AAo?$AAt?$AAM?$AAe?$AAd?$AAi?$AAa?$AA?5?$AA?$AN?$AA?6?$AA?$AA@ 00014c80     nand.obj
 0001:00003cbc       ??_C@_1DC@OFIKJCHM@?$AAI?$AAm?$AAa?$AAg?$AAe?$AAL?$AAe?$AAn?$AAg?$AAt?$AAh?$AA?5?$AA?$DN?$AA?5?$AA?$CF?$AAd?$AA?5?$AAB?$AAy?$AAt?$AAe?$AA?5?$AA?$AN?$AA?6?$AA?$AA@ 00014cbc     nand.obj
 0001:00003cf0       ??_C@_1GE@LGNNJHBJ@?$AAS?$AAt?$AAa?$AAr?$AAt?$AA?5?$AAP?$AAa?$AAg?$AAe?$AA?5?$AA?$DN?$AA?5?$AA?$CF?$AAd?$AA?0?$AA?5?$AAE?$AAn?$AAd?$AA?5?$AAP?$AAa?$AAg?$AAe?$AA?5?$AA?$DN?$AA?5?$AA?$CF?$AAd?$AA?0?$AA?5@ 00014cf0     nand.obj
 0001:00003d58       ??_C@_1IC@JMFJGKLL@?$AAR?$AAe?$AAa?$AAd?$AAO?$AAS?$AAI?$AAm?$AAa?$AAg?$AAe?$AAF?$AAr?$AAo?$AAm?$AAB?$AAo?$AAo?$AAt?$AAM?$AAe?$AAd?$AAi?$AAa?$AA?3?$AA?5?$AAE?$AAR?$AAR?$AAO?$AAR?$AA_@ 00014d58     nand.obj
 0001:00003de0       ??_C@_1FO@NFLBHKMP@?$AAE?$AAR?$AAR?$AAO?$AAR?$AA?3?$AA?5?$AAR?$AAe?$AAa?$AAd?$AAO?$AAS?$AAI?$AAm?$AAa?$AAg?$AAe?$AAF?$AAr?$AAo?$AAm?$AAB?$AAo?$AAo?$AAt?$AAM?$AAe?$AAd?$AAi?$AAa?$AA?3@ 00014de0     nand.obj
 0001:00003e40       ??_C@_1HC@CDNBIAAD@?$AAE?$AAR?$AAR?$AAO?$AAR?$AA?3?$AA?5?$AAR?$AAe?$AAa?$AAd?$AAO?$AAS?$AAI?$AAm?$AAa?$AAg?$AAe?$AAF?$AAr?$AAo?$AAm?$AAB?$AAo?$AAo?$AAt?$AAM?$AAe?$AAd?$AAi?$AAa?$AA?3@ 00014e40     nand.obj
 0001:00003eb4       ??_C@_1DI@NDJOHNCP@?$AA?$CL?$AAR?$AAe?$AAa?$AAd?$AAO?$AAS?$AAI?$AAm?$AAa?$AAg?$AAe?$AAF?$AAr?$AAo?$AAm?$AAB?$AAo?$AAo?$AAt?$AAM?$AAe?$AAd?$AAi?$AAa?$AA?$AN?$AA?6?$AA?$AA@ 00014eb4     nand.obj
 0001:00003ef0       ??_C@_1FE@JFBKNMHC@?$AAW?$AAr?$AAi?$AAt?$AAe?$AA?5?$AAR?$AAA?$AAW?$AA?5?$AAi?$AAm?$AAa?$AAg?$AAe?$AA?5?$AAt?$AAo?$AA?5?$AAB?$AAo?$AAo?$AAt?$AAM?$AAe?$AAd?$AAi?$AAa?$AA?5?$AAF?$AAa?$AAi@ 00014ef0     nand.obj
 0001:00003f48       ??_C@_1GK@FBAKHKMK@?$AAS?$AAt?$AAa?$AAr?$AAt?$AA?5?$AAB?$AAl?$AAo?$AAc?$AAk?$AA?5?$AA?$DN?$AA?5?$AA?$CF?$AAd?$AA?0?$AA?5?$AAE?$AAn?$AAd?$AA?5?$AAB?$AAl?$AAo?$AAc?$AAk?$AA?5?$AA?$DN?$AA?5?$AA?$CF?$AAd@ 00014f48     nand.obj
 0001:00003fb8       ??_C@_1FM@MMAGEFKH@?$AAW?$AAA?$AAR?$AAN?$AA?3?$AA?5?$AAW?$AAr?$AAi?$AAt?$AAe?$AAR?$AAa?$AAw?$AAI?$AAm?$AAa?$AAg?$AAe?$AAT?$AAo?$AAB?$AAo?$AAo?$AAt?$AAM?$AAe?$AAd?$AAi?$AAa?$AA?3?$AA?5@ 00014fb8     nand.obj
 0001:00004014       ??_C@_1DI@LKFDKOOB@?$AA_?$AAW?$AAr?$AAi?$AAt?$AAe?$AAR?$AAa?$AAw?$AAI?$AAm?$AAa?$AAg?$AAe?$AAT?$AAo?$AAB?$AAo?$AAo?$AAt?$AAM?$AAe?$AAd?$AAi?$AAa?$AA?$AN?$AA?6?$AA?$AA@ 00015014     nand.obj
 0001:00004050       ??_C@_1FM@DFDFHNCN@?$AAW?$AAr?$AAi?$AAt?$AAe?$AA?5?$AAS?$AAt?$AAe?$AAp?$AAl?$AAo?$AAa?$AAd?$AAe?$AAr?$AA?5?$AAi?$AAm?$AAa?$AAg?$AAe?$AA?5?$AAt?$AAo?$AA?5?$AAB?$AAo?$AAo?$AAt?$AAM?$AAe@ 00015050     nand.obj
 0001:000040b0       ??_C@_1GI@IEMMEGDC@?$AAC?$AAa?$AAn?$AAn?$AAo?$AAt?$AA?5?$AAW?$AAr?$AAi?$AAt?$AAe?$AA?5?$AAi?$AAm?$AAa?$AAg?$AAe?$AA?5?$AAo?$AAn?$AA?5?$AAp?$AAa?$AAg?$AAe?$AA?5?$AA?$CF?$AAd?$AA?5?$AA?$CI?$AAR@ 000150b0     nand.obj
 0001:00004118       ??_C@_1EE@JDGICMH@?$AA?$FL?$AAE?$AAR?$AAR?$AA?$FN?$AA?5?$AAF?$AAI?$AAL?$AA?5?$AAW?$AAr?$AAi?$AAt?$AAe?$AA?5?$AAE?$AAr?$AAr?$AAo?$AAr?$AA?5?$AA?$EA?$AA?5?$AA?$CF?$AAd?$AA?5?$AAp?$AAa?$AAg?$AAe?$AA?$AN@ 00015118     nand.obj
 0001:00004160       ??_C@_1EG@FNBHEAIG@?$AA?$FL?$AAE?$AAR?$AAR?$AA?$FN?$AA?5?$AAF?$AAI?$AAL?$AA?5?$AAE?$AAr?$AAa?$AAs?$AAe?$AA?5?$AAE?$AAr?$AAr?$AAo?$AAr?$AA?5?$AA?$EA?$AA?5?$AA?$CF?$AAd?$AA?5?$AAb?$AAl?$AAo?$AAc?$AAk@ 00015160     nand.obj
 0001:000041a8       ??_C@_1GC@MJNCNPAN@?$AAW?$AAr?$AAi?$AAt?$AAe?$AA?5?$AAS?$AAt?$AAe?$AAp?$AAl?$AAo?$AAa?$AAd?$AAe?$AAr?$AA?5?$AAi?$AAm?$AAa?$AAg?$AAe?$AA?5?$AAt?$AAo?$AA?5?$AAB?$AAo?$AAo?$AAt?$AAM?$AAe@ 000151a8     nand.obj
 0001:00004210       ??_C@_1EG@NAEPMLBA@?$AA?5?$AAd?$AAw?$AAP?$AAa?$AAg?$AAe?$AA?5?$AA?$DN?$AA?5?$AA0?$AAx?$AA?$CF?$AAx?$AA?0?$AA?5?$AAp?$AAb?$AAB?$AAu?$AAf?$AAf?$AAe?$AAr?$AA?5?$AA?$DN?$AA?5?$AA0?$AAx?$AA?$CF?$AAx?$AA?5@ 00015210     nand.obj
 0001:00004258       ??_C@_1IE@CAFKOEIC@?$AAW?$AAr?$AAi?$AAt?$AAe?$AA?5?$AAS?$AAt?$AAe?$AAp?$AAl?$AAo?$AAa?$AAd?$AAe?$AAr?$AA?5?$AA?$CI?$AAN?$AAB?$AAL?$AA1?$AA?$CL?$AAN?$AAB?$AAL?$AA2?$AA?$CJ?$AA?5?$AAi?$AAm?$AAa@ 00015258     nand.obj
 0001:000042e0       ??_C@_1KO@MJEOKFDA@?$AAV?$AAF?$AAL?$AA?5?$AAF?$AAo?$AAr?$AAm?$AAa?$AAt?$AAt?$AAe?$AAd?$AA?4?$AA?4?$AA?4?$AA?5?$AAB?$AAu?$AAt?$AA?5?$AAT?$AAh?$AAe?$AAr?$AAe?$AA?5?$AAi?$AAs?$AA?5?$AAn?$AAo@ 000152e0     nand.obj
 0001:00004390       ??_C@_1DA@BPGGFBOJ@?$AAV?$AAF?$AAL?$AA?5?$AAA?$AAl?$AAr?$AAe?$AAa?$AAd?$AAy?$AA?5?$AAF?$AAo?$AAr?$AAm?$AAa?$AAt?$AAt?$AAe?$AAd?$AA?$AN?$AA?6?$AA?$AA@ 00015390     nand.obj
 0001:000043c0       ??_C@_1FC@LIIJKIPD@?$AAW?$AAr?$AAi?$AAt?$AAe?$AA?5?$AAE?$AAb?$AAo?$AAo?$AAt?$AA?5?$AAi?$AAm?$AAa?$AAg?$AAe?$AA?5?$AAt?$AAo?$AA?5?$AAB?$AAo?$AAo?$AAt?$AAM?$AAe?$AAd?$AAi?$AAa?$AA?5?$AAS@ 000153c0     nand.obj
 0001:00004418       ??_C@_1EE@JICDIMNH@?$AAW?$AAr?$AAi?$AAt?$AAe?$AA?5?$AAE?$AAb?$AAo?$AAo?$AAt?$AA?5?$AAi?$AAm?$AAa?$AAg?$AAe?$AA?5?$AAt?$AAo?$AA?5?$AAB?$AAo?$AAo?$AAt?$AAM?$AAe?$AAd?$AAi?$AAa?$AA?5?$AA?$AN@ 00015418     nand.obj
 0001:00004460       ??_C@_1HC@CDFDJJMD@?$AAE?$AAR?$AAR?$AAO?$AAR?$AA?3?$AA?5?$AAW?$AAr?$AAi?$AAt?$AAe?$AAR?$AAa?$AAw?$AAI?$AAm?$AAa?$AAg?$AAe?$AAT?$AAo?$AAB?$AAo?$AAo?$AAt?$AAM?$AAe?$AAd?$AAi?$AAa?$AA?3@ 00015460     nand.obj
 0001:000044d4       ??_C@_1DI@MCOHEACK@?$AA?$CL?$AAW?$AAr?$AAi?$AAt?$AAe?$AAR?$AAa?$AAw?$AAI?$AAm?$AAa?$AAg?$AAe?$AAT?$AAo?$AAB?$AAo?$AAo?$AAt?$AAM?$AAe?$AAd?$AAi?$AAa?$AA?$AN?$AA?6?$AA?$AA@ 000154d4     nand.obj
 0001:0000450c       ??_C@_1BI@DHFNLOND@?$AAS?$AAp?$AAa?$AAr?$AAe?$AA?5?$AAD?$AAa?$AAt?$AAa?$AA?6?$AA?$AA@ 0001550c     nand.obj
 0001:00004528       ??_C@_1GG@NNNAIGB@?$AA?$DN?$AA?$DN?$AA?$DN?$AA?$DN?$AA?$DN?$AA?$DN?$AA?$DN?$AA?$DN?$AA?$DN?$AA?$DN?$AA?$DN?$AA?$DN?$AA?$DN?$AA?$DN?$AA?$DN?$AA?$DN?$AA?$DN?$AA?$DN?$AA?$DN?$AA?$DN?$AA?$DN?$AA?$DN?$AA?$DN?$AA?$DN?$AA?$DN?$AA?$DN?$AA?$DN?$AA?$DN?$AA?$DN?$AA?$DN?$AA?$DN?$AA?$DN@ 00015528     nand.obj
 0001:00004590       ??_C@_13LBAGMAIH@?$AA?6?$AA?$AA@ 00015590     nand.obj
 0001:00004594       ??_C@_1M@OMOAGDNC@?$AA?$CF?$AA0?$AA2?$AAx?$AA?5?$AA?$AA@ 00015594     nand.obj
 0001:000045a0       ??_C@_1BA@CEJCODBI@?$AA?$CF?$AA0?$AA8?$AAx?$AAh?$AA?3?$AA?5?$AA?$AA@ 000155a0     nand.obj
 0001:000045b0       ??_C@_1IO@JAIAANHK@?$AA?$DN?$AA?$DN?$AA?$DN?$AA?$DN?$AA?$DN?$AA?$DN?$AA?$DN?$AA?$DN?$AA?$DN?$AA?$DN?$AA?$DN?$AA?$DN?$AA?$DN?$AA?$DN?$AA?$DN?$AA?$DN?$AA?$DN?$AA?$DN?$AA?$DN?$AA?$DN?$AA?$DN?$AA?$DN?$AA?$DN?$AA?$DN?$AA?$DN?$AA?$DN?$AA?$DN?$AA?$DN?$AA?$DN?$AA?$DN?$AA?$DN?$AA?$DN@ 000155b0     nand.obj
 0001:00004640       ??_C@_1BI@PAHGEPNF@?$AAM?$AAa?$AAi?$AAn?$AA?5?$AAD?$AAa?$AAt?$AAa?$AA?$AN?$AA?6?$AA?$AA@ 00015640     nand.obj
 0001:00004658       ??_C@_1HK@CFAMJGAD@?$AA?$DN?$AA?$DN?$AA?$DN?$AA?$DN?$AA?$DN?$AA?$DN?$AA?$DN?$AA?$DN?$AA?$DN?$AA?$DN?$AA?$DN?$AA?$DN?$AA?$DN?$AA?$DN?$AA?$DN?$AA?$DN?$AA?$DN?$AA?$DN?$AA?$DN?$AA?$DN?$AA?$DN?$AA?$DN?$AA?$DN?$AA?$DN?$AA?$DN?$AA?$DN?$AA?$DN?$AA?$DN?$AA?$DN?$AA?$DN?$AA?$DN?$AA?$DN@ 00015658     nand.obj
 0001:000046d8       ??_C@_1GE@PHAKMCB@?$AA?5?$AAW?$AAr?$AAo?$AAn?$AAg?$AA?5?$AAB?$AAl?$AAo?$AAc?$AAk?$AA?5?$AAN?$AAu?$AAm?$AAb?$AAe?$AAr?$AA?5?$AA?$CB?$AA?5?$AAY?$AAo?$AAu?$AA?5?$AAc?$AAa?$AAn?$AA?5?$AAe?$AAr@ 000156d8     nand.obj
 0001:0000473c       ??_C@_1CM@IBKKGJCB@?$AA?5?$AAF?$AAI?$AAL?$AA?5?$AAE?$AAr?$AAa?$AAs?$AAe?$AA?5?$AAS?$AAu?$AAc?$AAc?$AAe?$AAs?$AAs?$AA?5?$AA?$AN?$AA?6?$AA?$AA@ 0001573c     nand.obj
 0001:00004768       ??_C@_1CG@BCNEFHPF@?$AA?5?$AAF?$AAI?$AAL?$AA?5?$AAE?$AAr?$AAa?$AAs?$AAe?$AA?5?$AAF?$AAa?$AAi?$AAl?$AA?5?$AA?$AN?$AA?6?$AA?$AA@ 00015768     nand.obj
 0001:00004790       ??_C@_1CK@HKGDLOMI@?$AA?$AN?$AA?6?$AA?5?$AAF?$AAI?$AAL?$AA?5?$AAE?$AAr?$AAa?$AAs?$AAe?$AA?5?$AAT?$AAe?$AAs?$AAt?$AA?5?$AA?$AN?$AA?6?$AA?$AA@ 00015790     nand.obj
 0001:000047c0       ??_C@_1EI@DDDKFKLO@?$AA?5?$AAB?$AAl?$AAo?$AAc?$AAk?$AA?5?$AAN?$AAu?$AAm?$AAb?$AAe?$AAr?$AA?5?$AA?$FL?$AA9?$AA9?$AA9?$AA9?$AA9?$AA9?$AA9?$AA9?$AA?5?$AAt?$AAo?$AA?5?$AAe?$AAx?$AAi?$AAt?$AA?$FN@ 000157c0     nand.obj
 0001:00004808       ??_C@_1GC@CHDDHIOE@?$AA?5?$AAW?$AAr?$AAo?$AAn?$AAg?$AA?5?$AAP?$AAa?$AAg?$AAe?$AA?5?$AAN?$AAu?$AAm?$AAb?$AAe?$AAr?$AA?5?$AA?$CB?$AA?5?$AAY?$AAo?$AAu?$AA?5?$AAc?$AAa?$AAn?$AA?5?$AAw?$AAr?$AAi@ 00015808     nand.obj
 0001:0000486c       ??_C@_1CM@NBGHDPLM@?$AA?5?$AAF?$AAI?$AAL?$AA?5?$AAW?$AAr?$AAi?$AAt?$AAe?$AA?5?$AAS?$AAu?$AAc?$AAc?$AAe?$AAs?$AAs?$AA?5?$AA?$AN?$AA?6?$AA?$AA@ 0001586c     nand.obj
 0001:00004898       ??_C@_1CG@LNDEHOOB@?$AA?5?$AAF?$AAI?$AAL?$AA?5?$AAW?$AAr?$AAi?$AAt?$AAe?$AA?5?$AAF?$AAa?$AAi?$AAl?$AA?5?$AA?$AN?$AA?6?$AA?$AA@ 00015898     nand.obj
 0001:000048c0       ??_C@_1CK@NFIDJHNM@?$AA?$AN?$AA?6?$AA?5?$AAF?$AAI?$AAL?$AA?5?$AAW?$AAr?$AAi?$AAt?$AAe?$AA?5?$AAT?$AAe?$AAs?$AAt?$AA?5?$AA?$AN?$AA?6?$AA?$AA@ 000158c0     nand.obj
 0001:000048f0       ??_C@_1EG@CNLCDEHL@?$AA?5?$AAP?$AAa?$AAg?$AAe?$AA?5?$AAN?$AAu?$AAm?$AAb?$AAe?$AAr?$AA?5?$AA?$FL?$AA9?$AA9?$AA9?$AA9?$AA9?$AA9?$AA9?$AA9?$AA?5?$AAt?$AAo?$AA?5?$AAe?$AAx?$AAi?$AAt?$AA?$FN?$AA?5@ 000158f0     nand.obj
 0001:00004938       ??_C@_1FO@BHAEJECF@?$AA?5?$AAW?$AAr?$AAo?$AAn?$AAg?$AA?5?$AAP?$AAa?$AAg?$AAe?$AA?5?$AAN?$AAu?$AAm?$AAb?$AAe?$AAr?$AA?5?$AA?$CB?$AA?5?$AAY?$AAo?$AAu?$AA?5?$AAc?$AAa?$AAn?$AA?5?$AAr?$AAe?$AAa@ 00015938     nand.obj
 0001:00004998       ??_C@_1CK@NCMGBJNL@?$AA?5?$AAF?$AAI?$AAL?$AA?5?$AAR?$AAe?$AAa?$AAd?$AA?5?$AAS?$AAu?$AAc?$AAc?$AAe?$AAs?$AAs?$AA?5?$AA?$AN?$AA?6?$AA?$AA@ 00015998     nand.obj
 0001:000049c4       ??_C@_1CE@FLLKGOIA@?$AA?5?$AAF?$AAI?$AAL?$AA?5?$AAR?$AAe?$AAa?$AAd?$AA?5?$AAF?$AAa?$AAi?$AAl?$AA?5?$AA?$AN?$AA?6?$AA?$AA@ 000159c4     nand.obj
 0001:000049e8       ??_C@_1CI@CKOGPH@?$AA?$AN?$AA?6?$AA?5?$AAF?$AAI?$AAL?$AA?5?$AAR?$AAe?$AAa?$AAd?$AA?5?$AAT?$AAe?$AAs?$AAt?$AA?5?$AA?$AN?$AA?6?$AA?$AA@ 000159e8     nand.obj
 0001:00004a10       ??_C@_1CM@BCNCHCOH@?$AA?5?$AAV?$AAF?$AAL?$AA?5?$AAE?$AAr?$AAa?$AAs?$AAe?$AA?5?$AAS?$AAu?$AAc?$AAc?$AAe?$AAs?$AAs?$AA?5?$AA?$AN?$AA?6?$AA?$AA@ 00015a10     nand.obj
 0001:00004a3c       ??_C@_1CG@PDHJANNK@?$AA?5?$AAV?$AAF?$AAL?$AA?5?$AAE?$AAr?$AAa?$AAs?$AAe?$AA?5?$AAF?$AAa?$AAi?$AAl?$AA?5?$AA?$AN?$AA?6?$AA?$AA@ 00015a3c     nand.obj
 0001:00004a64       ??_C@_1CK@JLMOOEOH@?$AA?$AN?$AA?6?$AA?5?$AAV?$AAF?$AAL?$AA?5?$AAE?$AAr?$AAa?$AAs?$AAe?$AA?5?$AAT?$AAe?$AAs?$AAt?$AA?5?$AA?$AN?$AA?6?$AA?$AA@ 00015a64     nand.obj
 0001:00004a90       ??_C@_1CM@ECBPCEHK@?$AA?5?$AAV?$AAF?$AAL?$AA?5?$AAW?$AAr?$AAi?$AAt?$AAe?$AA?5?$AAS?$AAu?$AAc?$AAc?$AAe?$AAs?$AAs?$AA?5?$AA?$AN?$AA?6?$AA?$AA@ 00015a90     nand.obj
 0001:00004abc       ??_C@_1CG@FMJJCEMO@?$AA?5?$AAV?$AAF?$AAL?$AA?5?$AAW?$AAr?$AAi?$AAt?$AAe?$AA?5?$AAF?$AAa?$AAi?$AAl?$AA?5?$AA?$AN?$AA?6?$AA?$AA@ 00015abc     nand.obj
 0001:00004ae4       ??_C@_1CK@DECOMNPD@?$AA?$AN?$AA?6?$AA?5?$AAV?$AAF?$AAL?$AA?5?$AAW?$AAr?$AAi?$AAt?$AAe?$AA?5?$AAT?$AAe?$AAs?$AAt?$AA?5?$AA?$AN?$AA?6?$AA?$AA@ 00015ae4     nand.obj
 0001:00004b10       ??_C@_1GA@DMIKFEBL@?$AA?5?$AAW?$AAr?$AAo?$AAn?$AAg?$AA?5?$AAP?$AAa?$AAg?$AAe?$AA?5?$AAN?$AAu?$AAm?$AAb?$AAe?$AAr?$AA?5?$AA?$CB?$AA?5?$AAY?$AAo?$AAu?$AA?5?$AAc?$AAa?$AAn?$AA?5?$AAr?$AAe?$AAa@ 00015b10     nand.obj
 0001:00004b70       ??_C@_1CK@IHBIBNJP@?$AA?5?$AAV?$AAF?$AAL?$AA?5?$AAR?$AAe?$AAa?$AAd?$AA?5?$AAS?$AAu?$AAc?$AAc?$AAe?$AAs?$AAs?$AA?5?$AA?$AN?$AA?6?$AA?$AA@ 00015b70     nand.obj
 0001:00004b9c       ??_C@_1CE@CFINFBOC@?$AA?5?$AAV?$AAF?$AAL?$AA?5?$AAR?$AAe?$AAa?$AAd?$AA?5?$AAF?$AAa?$AAi?$AAl?$AA?5?$AA?$AN?$AA?6?$AA?$AA@ 00015b9c     nand.obj
 0001:00004bc0       ??_C@_1CI@HOBNNJJF@?$AA?$AN?$AA?6?$AA?5?$AAV?$AAF?$AAL?$AA?5?$AAR?$AAe?$AAa?$AAd?$AA?5?$AAT?$AAe?$AAs?$AAt?$AA?5?$AA?$AN?$AA?6?$AA?$AA@ 00015bc0     nand.obj
 0001:00004be8       ??_C@_1CM@EOKBJBFH@?$AA?5?$AAR?$AAA?$AAW?$AA?5?$AAE?$AAr?$AAa?$AAs?$AAe?$AA?5?$AAS?$AAu?$AAc?$AAc?$AAe?$AAs?$AAs?$AA?5?$AA?$AN?$AA?6?$AA?$AA@ 00015be8     nand.obj
 0001:00004c14       ??_C@_1CG@DPELAMN@?$AA?5?$AAR?$AAA?$AAW?$AA?5?$AAE?$AAr?$AAa?$AAs?$AAe?$AA?5?$AAF?$AAa?$AAi?$AAl?$AA?5?$AA?$AN?$AA?6?$AA?$AA@ 00015c14     nand.obj
 0001:00004c3c       ??_C@_1CK@GLEDFJPA@?$AA?$AN?$AA?6?$AA?5?$AAR?$AAA?$AAW?$AA?5?$AAE?$AAr?$AAa?$AAs?$AAe?$AA?5?$AAT?$AAe?$AAs?$AAt?$AA?5?$AA?$AN?$AA?6?$AA?$AA@ 00015c3c     nand.obj
 0001:00004c68       ??_C@_1CM@BOGMMHMK@?$AA?5?$AAR?$AAA?$AAW?$AA?5?$AAW?$AAr?$AAi?$AAt?$AAe?$AA?5?$AAS?$AAu?$AAc?$AAc?$AAe?$AAs?$AAs?$AA?5?$AA?$AN?$AA?6?$AA?$AA@ 00015c68     nand.obj
 0001:00004c94       ??_C@_1CG@KMBEJJNJ@?$AA?5?$AAR?$AAA?$AAW?$AA?5?$AAW?$AAr?$AAi?$AAt?$AAe?$AA?5?$AAF?$AAa?$AAi?$AAl?$AA?5?$AA?$AN?$AA?6?$AA?$AA@ 00015c94     nand.obj
 0001:00004cbc       ??_C@_1CK@MEKDHAOE@?$AA?$AN?$AA?6?$AA?5?$AAR?$AAA?$AAW?$AA?5?$AAW?$AAr?$AAi?$AAt?$AAe?$AA?5?$AAT?$AAe?$AAs?$AAt?$AA?5?$AA?$AN?$AA?6?$AA?$AA@ 00015cbc     nand.obj
 0001:00004ce8       ??_C@_1CI@FILKIIMD@?$AA?$AN?$AA?6?$AA?5?$AAR?$AAA?$AAW?$AA?5?$AAR?$AAe?$AAa?$AAd?$AA?5?$AAT?$AAe?$AAs?$AAt?$AA?5?$AA?$AN?$AA?6?$AA?$AA@ 00015ce8     nand.obj
 0001:00004d10       ??_C@_1EC@JPCANEAL@?$AA?$AN?$AA?6?$AAM?$AAB?$AAR?$AA?5?$AAi?$AAs?$AA?5?$AAf?$AAo?$AAu?$AAn?$AAd?$AA?5?$AAo?$AAn?$AA?5?$AAP?$AAa?$AAg?$AAe?$AA?5?$AA?$CF?$AAd?$AA?5?$AA?$CI?$AA?$CF?$AAx?$AA?$CJ?$AA?$AN?$AA?6@ 00015d10     nand.obj
 0001:00004d58       ??_C@_1GC@BFOJNALA@?$AA?5?$AAW?$AAr?$AAo?$AAn?$AAg?$AA?5?$AAB?$AAl?$AAo?$AAc?$AAk?$AA?5?$AAN?$AAu?$AAm?$AAb?$AAe?$AAr?$AA?5?$AA?$CB?$AA?5?$AAY?$AAo?$AAu?$AA?5?$AAc?$AAa?$AAn?$AA?5?$AAm?$AAa@ 00015d58     nand.obj
 0001:00004dbc       ??_C@_1DG@LBEAFNID@?$AA?5?$AAM?$AAa?$AAr?$AAk?$AA?5?$AAB?$AAa?$AAd?$AA?5?$AAB?$AAl?$AAo?$AAc?$AAk?$AA?5?$AAS?$AAu?$AAc?$AAc?$AAe?$AAs?$AAs?$AA?5?$AA?$AN?$AA?6?$AA?$AA@ 00015dbc     nand.obj
 0001:00004df4       ??_C@_1CK@PAGNADJK@?$AA?$AN?$AA?6?$AA?5?$AAM?$AAa?$AAr?$AAk?$AA?5?$AAB?$AAa?$AAd?$AA?5?$AAB?$AAl?$AAo?$AAc?$AAk?$AA?5?$AA?$AN?$AA?6?$AA?$AA@ 00015df4     nand.obj
 0001:00004e20       ??_C@_1CE@EPAFOHAC@?$AAW?$AAr?$AAo?$AAn?$AAg?$AA?5?$AAs?$AAe?$AAl?$AAe?$AAc?$AAt?$AAi?$AAo?$AAn?$AA?$AN?$AA?6?$AA?$AA@ 00015e20     nand.obj
 0001:00004e44       ??_C@_1DC@KGOALDOH@?$AA?$AN?$AA?6?$AA?$DN?$AA?$DN?$AA?$DN?$AA?$DN?$AA?$DN?$AA?$DN?$AA?$DN?$AA?$DN?$AA?$DN?$AA?$DN?$AA?$DN?$AA?$DN?$AA?$DN?$AA?$DN?$AA?$DN?$AA?$DN?$AA?$DN?$AA?$DN?$AA?$DN?$AA?$DN?$AA?$AN?$AA?6?$AA?$AA@ 00015e44     nand.obj
 0001:00004e78       ??_C@_1CO@LEPLAOGD@?$AA?5?$AAM?$AAL?$AAC?$AA?5?$AAL?$AAo?$AAw?$AA?5?$AAL?$AAe?$AAv?$AAe?$AAl?$AA?5?$AAT?$AAe?$AAs?$AAt?$AA?5?$AA?$AN?$AA?6?$AA?$AA@ 00015e78     nand.obj
 0001:00004ea8       ??_C@_1CO@BGGDBDGK@?$AA?5?$AA?5?$AA1?$AA?4?$AA?5?$AAF?$AAI?$AAL?$AA?5?$AAE?$AAr?$AAa?$AAs?$AAe?$AA?5?$AAT?$AAe?$AAs?$AAt?$AA?5?$AA?$AN?$AA?6?$AA?$AA@ 00015ea8     nand.obj
 0001:00004ed8       ??_C@_1CO@IBLILBAN@?$AA?5?$AA?5?$AA2?$AA?4?$AA?5?$AAF?$AAI?$AAL?$AA?5?$AAW?$AAr?$AAi?$AAt?$AAe?$AA?5?$AAT?$AAe?$AAs?$AAt?$AA?5?$AA?$AN?$AA?6?$AA?$AA@ 00015ed8     nand.obj
 0001:00004f08       ??_C@_1CM@LCIIPHN@?$AA?5?$AA?5?$AA3?$AA?4?$AA?5?$AAF?$AAI?$AAL?$AA?5?$AAR?$AAe?$AAa?$AAd?$AA?5?$AAT?$AAe?$AAs?$AAt?$AA?5?$AA?$AN?$AA?6?$AA?$AA@ 00015f08     nand.obj
 0001:00004f34       ??_C@_1CO@LPICNENA@?$AA?5?$AA?5?$AA4?$AA?4?$AA?5?$AAV?$AAF?$AAL?$AA?5?$AAE?$AAr?$AAa?$AAs?$AAe?$AA?5?$AAT?$AAe?$AAs?$AAt?$AA?5?$AA?$AN?$AA?6?$AA?$AA@ 00015f34     nand.obj
 0001:00004f64       ??_C@_1CO@LBFLHJCK@?$AA?5?$AA?5?$AA5?$AA?4?$AA?5?$AAV?$AAF?$AAL?$AA?5?$AAW?$AAr?$AAi?$AAt?$AAe?$AA?5?$AAT?$AAe?$AAs?$AAt?$AA?5?$AA?$AN?$AA?6?$AA?$AA@ 00015f64     nand.obj
 0001:00004f94       ??_C@_1CM@KNKGBIH@?$AA?5?$AA?5?$AA6?$AA?4?$AA?5?$AAV?$AAF?$AAL?$AA?5?$AAR?$AAe?$AAa?$AAd?$AA?5?$AAT?$AAe?$AAs?$AAt?$AA?5?$AA?$AN?$AA?6?$AA?$AA@ 00015f94     nand.obj
 0001:00004fc0       ??_C@_1CO@HHDEOCLE@?$AA?5?$AA?5?$AA7?$AA?4?$AA?5?$AAR?$AAA?$AAW?$AA?5?$AAE?$AAr?$AAa?$AAs?$AAe?$AA?5?$AAT?$AAe?$AAs?$AAt?$AA?5?$AA?$AN?$AA?6?$AA?$AA@ 00015fc0     nand.obj
 0001:00004ff0       ??_C@_1CO@BGNBP@?$AA?5?$AA?5?$AA8?$AA?4?$AA?5?$AAR?$AAA?$AAW?$AA?5?$AAW?$AAr?$AAi?$AAt?$AAe?$AA?5?$AAT?$AAe?$AAs?$AAt?$AA?5?$AA?$AN?$AA?6?$AA?$AA@ 00015ff0     nand.obj
 0001:00005020       ??_C@_1CM@KMDDECHJ@?$AA?5?$AA?5?$AA9?$AA?4?$AA?5?$AAR?$AAA?$AAW?$AA?5?$AAR?$AAe?$AAa?$AAd?$AA?5?$AAT?$AAe?$AAs?$AAt?$AA?5?$AA?$AN?$AA?6?$AA?$AA@ 00016020     nand.obj
 0001:0000504c       ??_C@_1CO@NIGMJOFH@?$AA?5?$AA1?$AA0?$AA?4?$AA?5?$AAM?$AAa?$AAr?$AAk?$AA?5?$AAB?$AAa?$AAd?$AA?5?$AAB?$AAl?$AAo?$AAc?$AAk?$AA?5?$AA?$AN?$AA?6?$AA?$AA@ 0001604c     nand.obj
 0001:0000507c       ??_C@_1CM@OJABDDDA@?$AA?5?$AA1?$AA1?$AA?4?$AA?5?$AAF?$AAi?$AAn?$AAd?$AA?5?$AAM?$AAB?$AAR?$AA?5?$AAP?$AAa?$AAg?$AAe?$AA?5?$AA?$AN?$AA?6?$AA?$AA@ 0001607c     nand.obj
 0001:000050a8       ??_C@_1CE@FILHOJCF@?$AA?5?$AA?5?$AA0?$AA?4?$AA?5?$AAE?$AAx?$AAi?$AAt?$AA?5?$AAT?$AAe?$AAs?$AAt?$AA?5?$AA?$AN?$AA?6?$AA?$AA@ 000160a8     nand.obj
 0001:000050cc       ??_C@_1CO@PEENNAPD@?$AA?$DN?$AA?$DN?$AA?$DN?$AA?$DN?$AA?$DN?$AA?$DN?$AA?$DN?$AA?$DN?$AA?$DN?$AA?$DN?$AA?$DN?$AA?$DN?$AA?$DN?$AA?$DN?$AA?$DN?$AA?$DN?$AA?$DN?$AA?$DN?$AA?$DN?$AA?$DN?$AA?$AN?$AA?6?$AA?$AA@ 000160cc     nand.obj
 0001:000050fc       ??_C@_1BE@EDFKEGIO@?$AAS?$AAe?$AAl?$AAe?$AAc?$AAt?$AA?5?$AA?3?$AA?5?$AA?$AA@ 000160fc     nand.obj
 0001:000051a0       aDeviceQualifierDescriptor 000161a0     usb.obj
 0001:000051ac       aDescStr0                  000161ac     usb.obj
 0001:000051b0       aDescStr1                  000161b0     usb.obj
 0001:000051c8       aDescStr2                  000161c8     usb.obj
 0001:000051f4       ??_C@_0BO@JCBBMKK@Error?5?3?5Current?5Mode?5is?5Host?6?$AA@ 000161f4     usb.obj
 0001:000052a8       ??_C@_0BD@CIECMBAH@O?$CJ?5Switch?5All?5ON?$AN?6?$AA@ 000162a8     PWRCTL_MENU.obj
 0001:000052bc       ??_C@_0BE@OFDFFAGE@F?$CJ?5Switch?5All?5OFF?$AN?6?$AA@ 000162bc     PWRCTL_MENU.obj
 0001:000052d0       ??_C@_0BL@BAHFCBGD@D?$CJ?5Load?5Factory?5defaults?$AN?6?$AA@ 000162d0     PWRCTL_MENU.obj
 0001:000052ec       ??_C@_09OOINKAAN@Q?$CJ?5Exit?$AN?6?$AA@ 000162ec     PWRCTL_MENU.obj
 0001:000052f8       ??_C@_0CH@BLBBBAFM@Choose?5?$FL1?4?4?$CFd?$FN?5for?5toggle?0?5Q?5to?5@ 000162f8     PWRCTL_MENU.obj
 0001:00005320       ??_C@_0N@KEJINOAE@?$CFd?$CJ?5?$CFs?3?5?$CFs?$AN?6?$AA@ 00016320     PWRCTL_MENU.obj
 0001:00005330       ??_C@_0DC@GOBMFLLF@?$AN?6?$CD?$CD?$CD?$CD?$CD?$CD?$CD?$CD?$CD?$CD?$CD?$CD?$CD?$CD?$CD?$CD?$CD?$CD?$CD?$CD?$CD?$CD?$CD?$CD?$CD?$CD?$CD?$CD?$CD?$CD@ 00016330     PWRCTL_MENU.obj
 0001:00005418       ??_C@_0BF@DNJENAPM@?$CFs?59?$CJ?5DRVLCD?3?5?$FL?$CFu?$FN?$AN?6?$AA@ 00016418     MegaDisplay.obj
 0001:00005430       ??_C@_0DC@KCBOEBBD@?$CD?$CD?$CD?$CD?$CD?$CD?$CD?$CD?$CD?$CD?$CD?$CD?$CD?$CD?$CD?$CD?$CD?$CD?$CD?$CD?$CD?$CD?$CD?$CD?$CD?$CD?$CD?$CD?$CD?$CD?$CD?$CD@ 00016430     MegaDisplay.obj
 0001:00005464       ??_C@_0BD@CKOCLNPL@?$CFs?58?$CJ?5PSC0?3?5?$FL?$CFu?$FN?$AN?6?$AA@ 00016464     MegaDisplay.obj
 0001:00005478       ??_C@_0BJ@POFKHLIH@?$CFs?57?$CJ?5FRAME_RATE?3?5?$FL?$CFu?$FN?$AN?6?$AA@ 00016478     MegaDisplay.obj
 0001:00005494       ??_C@_0BD@OAELIDCE@?$CFs?56?$CJ?5HSPW?3?5?$FL?$CFu?$FN?$AN?6?$AA@ 00016494     MegaDisplay.obj
 0001:000054a8       ??_C@_0BD@JBKBJHNB@?$CFs?55?$CJ?5HFPD?3?5?$FL?$CFu?$FN?$AN?6?$AA@ 000164a8     MegaDisplay.obj
 0001:000054bc       ??_C@_0BD@DMMPDNDP@?$CFs?54?$CJ?5HBPD?3?5?$FL?$CFu?$FN?$AN?6?$AA@ 000164bc     MegaDisplay.obj
 0001:000054d0       ??_C@_0BD@NEPDPEFI@?$CFs?53?$CJ?5VSPW?3?5?$FL?$CFu?$FN?$AN?6?$AA@ 000164d0     MegaDisplay.obj
 0001:000054e4       ??_C@_0BD@CCLJMFMO@?$CFs?52?$CJ?5VFPD?3?5?$FL?$CFu?$FN?$AN?6?$AA@ 000164e4     MegaDisplay.obj
 0001:000054f8       ??_C@_0N@EJAPBBEP@?$CFs?51?$CJ?5VBPD?3?5?$AA@ 000164f8     MegaDisplay.obj
 0001:00005508       ??_C@_06LDMCHEGC@?$FL?$CFd?$FN?$AN?6?$AA@ 00016508     MegaDisplay.obj
 0001:0000550f       ??_C@_00CNPNBAHC@?$AA@     0001650f     MegaDisplay.obj
 0001:00005510       ??_C@_01NBENCBCI@?$CK?$AA@ 00016510     MegaDisplay.obj
 0001:00005514       ??_C@_0O@OIDOPPME@Display?3?5?$CFs?$AN?6?$AA@ 00016514     MegaDisplay.obj
 0001:00005524       ??_C@_0CG@DOLBDMJF@Display?5has?5LED?5backlight?5boost?3@ 00016524     MegaDisplay.obj
 0001:0000554c       ??_C@_0CI@MAECMMB@?0?5but?5found?5PCA9530?5PWM?5?$FL0xC0?$FN?5d@ 0001654c     MegaDisplay.obj
 0001:00005608       ??_C@_04OLFIILKC@?$CFc?$AN?6?$AA@ 00016608     utils.obj
 0001:000056a0       ??_C@_0DC@EIMBKOLF@?$AN?6?$CD?$CD?$CD?$CD?5?5?5Enter?5WEB?5FORMAT?5RGB?0?5l@ 000166a0     DisplayMenu.obj
 0001:000056d4       ??_C@_0BK@BLMPCPMC@?$CIeg?3?5FFFFFF?5for?5white?$CJ?5?$DO?$CD?$AA@ 000166d4     DisplayMenu.obj
 0001:000056f0       ??_C@_0CP@KODMOGDP@Type?5number?5?$FL1?4?4?$CFd?$FN?0?5press?5RETUR@ 000166f0     DisplayMenu.obj
 0001:00005720       ??_C@_0BK@FKCGPCP@2?$CJ?5?$CFsDepth?524BIT?5RGB888?$AN?6?$AA@ 00016720     DisplayMenu.obj
 0001:0000573c       ??_C@_0CC@NMOBHCG@C?$CJ?5Change?5background?5Color?5?$FL?$CFx?$FN?$AN@ 0001673c     DisplayMenu.obj
 0001:00005760       ??_C@_0BI@OIJKJJFM@R?$CJ?5Test?9Fill?5with?5red?$AN?6?$AA@ 00016760     DisplayMenu.obj
 0001:00005778       ??_C@_0BK@EKEJNDLI@G?$CJ?5Test?9Fill?5with?5green?$AN?6?$AA@ 00016778     DisplayMenu.obj
 0001:00005794       ??_C@_0BJ@CGEBPCPP@B?$CJ?5Test?9Fill?5with?5blue?$AN?6?$AA@ 00016794     DisplayMenu.obj
 0001:000057b0       ??_C@_0BK@KCENIDCD@W?$CJ?5Test?9Fill?5with?5white?$AN?6?$AA@ 000167b0     DisplayMenu.obj
 0001:000057cc       ??_C@_0BK@DANDGKE@E?$CJ?5Test?9Fill?5with?5black?$AN?6?$AA@ 000167cc     DisplayMenu.obj
 0001:000057e8       ??_C@_0BC@MFOJONMH@T?$CJ?5Test?5Pattern?$AN?6?$AA@ 000167e8     DisplayMenu.obj
 0001:000057fc       ??_C@_0BL@MDAEEHAL@Choose?0?5Q?5or?5ESC?5to?5exit?$AN?6?$AA@ 000167fc     DisplayMenu.obj
 0001:00005818       ??_C@_0BK@PGCCFJGB@1?$CJ?5?$CFsDepth?516BIT?5RGB565?$AN?6?$AA@ 00016818     DisplayMenu.obj
 0001:00005834       ??_C@_0BK@LLMJHLHH@N?$CJ?5No?5display?5connected?$AN?6?$AA@ 00016834     DisplayMenu.obj
 0001:00005850       ??_C@_0L@PODECCKJ@?$CFd?$CJ?5?$CFs?$CFs?$AN?6?$AA@ 00016850     DisplayMenu.obj
 0001:0000585c       ??_C@_0BK@PJBCCJE@S?$CJ?5Set?5Display?5manually?$AN?6?$AA@ 0001685c     DisplayMenu.obj
 0001:0000e698       ??_C@_0CG@OFNBIFML@INFO?3?5?$CIunsigned?$CJC_IsrHandler?5?3?50@ 0001f698     InterruptController.obj
 0001:0000e6c0       ??_C@_0CI@KLGKACOG@INFO?3?5?$CIunsigned?$CJASM_IsrHandler?5?3@ 0001f6c0     InterruptController.obj
 0001:0000e6e8       ??_C@_0BO@POFPGMDD@INFO?3?5?$CIunsigned?$CJpISR?5?3?50x?$CFx?$AN?6?$AA@ 0001f6e8     InterruptController.obj
 0001:0000e798       ??_C@_0M@JEKLCGMJ@g_PCLK?5?$DN?5?$CFd?$AA@ 0001f798     i2c.obj
 0001:0000e7a4       ??_C@_0BA@FPFAAJMG@uSelClkSrc?5?$DN?5?$CFd?$AA@ 0001f7a4     i2c.obj
 0001:0000e7b4       ??_C@_0P@FNJOLAO@uClkValue?5?$DN?5?$CFd?$AA@ 0001f7b4     i2c.obj
 0001:0000e7c4       ??_C@_0BL@OGNCJIDC@?$FLEboot?$FN?5IIC_WaitTimeOut?$CB?$AN?6?$AA@ 0001f7c4     i2c.obj
 0001:0000e7e0       ??_C@_0BM@JCBPBCJ@?$FLEboot?$FN?5IIC_WriteTimeOut?$CB?$AN?6?$AA@ 0001f7e0     i2c.obj
 0001:0000e920       ??_C@_0CG@IHIMJOIA@?9OALKitlCreateName?$CIpBuffer?5?$DN?5?8?$CFh@ 0001f920     oal_kitl:name.obj
 0001:0000e948       ??_C@_0CM@BCMDHFLI@?$CLOALKitlCreateName?$CI?8?$CFhs?8?0?50x?$CF04x@ 0001f948     oal_kitl:name.obj
 0001:0000eb28       ??_C@_1O@INIEDEDF@?$AA?$CI?$AAN?$AAU?$AAL?$AAL?$AA?$CJ?$AA?$AA@ 0001fb28     oal_blnk:format.obj
 0001:0000eb38       ??_C@_06LHGEHABH@?$CINULL?$CJ?$AA@ 0001fb38     oal_blnk:format.obj
 0001:0000eb40       ??_C@_0M@CDHNGIPM@?$CFu?4?$CFu?4?$CFu?4?$CFu?$AA@ 0001fb40     oal_blcommon:format.obj
 0001:0000ebe0       pTOC                       0001fbe0     oal_blcommon:blcommon.obj
 0001:0000ebe8       NKSignon                   0001fbe8     oal_blcommon:blcommon.obj
 0001:0000ec44       ??_C@_0DJ@LFHEGALA@ERROR?3?5Checksum?5failure?5?$CIexpecte@ 0001fc44     oal_blcommon:blcommon.obj
 0001:0000ec80       ??_C@_0BM@DKIOIAMD@?$AN?6BL_IMAGE_TYPE_UNKNOWN?$AN?6?$AN?6?$AA@ 0001fc80     oal_blcommon:blcommon.obj
 0001:0000ec9c       ??_C@_0BP@KNNCEABF@?$AN?6BL_IMAGE_TYPE_SIGNED_NB0?$AN?6?$AN?6?$AA@ 0001fc9c     oal_blcommon:blcommon.obj
 0001:0000ecbc       ??_C@_07LAGBNAEN@R000FF?6?$AA@ 0001fcbc     oal_blcommon:blcommon.obj
 0001:0000ecc4       ??_C@_0BP@MJFCGNBB@?$AN?6BL_IMAGE_TYPE_SIGNED_BIN?$AN?6?$AN?6?$AA@ 0001fcc4     oal_blcommon:blcommon.obj
 0001:0000ece4       ??_C@_07HMMLNAND@S000FF?6?$AA@ 0001fce4     oal_blcommon:blcommon.obj
 0001:0000ecec       ??_C@_0BI@HBMHAEFD@?$AN?6BL_IMAGE_TYPE_BIN?$AN?6?$AN?6?$AA@ 0001fcec     oal_blcommon:blcommon.obj
 0001:0000ed04       ??_C@_07MMNKOBGG@B000FF?6?$AA@ 0001fd04     oal_blcommon:blcommon.obj
 0001:0000ed0c       ??_C@_0BN@IHLEHBEK@?$AN?6BL_IMAGE_TYPE_MULTIXIP?$AN?6?$AN?6?$AA@ 0001fd0c     oal_blcommon:blcommon.obj
 0001:0000ed2c       ??_C@_07CBKBMMIF@X000FF?6?$AA@ 0001fd2c     oal_blcommon:blcommon.obj
 0001:0000ed34       ??_C@_0BN@GCKOHOON@?$AN?6BL_IMAGE_TYPE_MANIFEST?$AN?6?$AN?6?$AA@ 0001fd34     oal_blcommon:blcommon.obj
 0001:0000ed54       ??_C@_07JLHFPECJ@N000FF?6?$AA@ 0001fd54     oal_blcommon:blcommon.obj
 0001:0000ed5c       ??_C@_0CL@OKMIEAHJ@?$AN?6ERROR?3?5Unable?5to?5read?5image?5si@ 0001fd5c     oal_blcommon:blcommon.obj
 0001:0000ed88       ??_C@_0DJ@PIPLIHFI@?$AN?6ERROR?3?5Unable?5to?5read?5download@ 0001fd88     oal_blcommon:blcommon.obj
 0001:0000edc8       ??_C@_0EC@LAKEOKID@?$AN?6ERROR?3?5Download?5manifest?5packe@ 0001fdc8     oal_blcommon:blcommon.obj
 0001:0000ee0c       ??_C@_0DG@DBBGHEAG@?$AN?6ERROR?3?5Unable?5to?5read?5download@ 0001fe0c     oal_blcommon:blcommon.obj
 0001:0000ee44       ??_C@_0DL@DCHMDHHD@ImageStart?5?$DN?50x?$CFx?0?5ImageLength?5?$DN@ 0001fe44     oal_blcommon:blcommon.obj
 0001:0000ee80       ??_C@_0CO@PFLGIDFG@ERROR?3?5failed?5when?5reading?5raw?5b@ 0001fe80     oal_blcommon:blcommon.obj
 0001:0000eeb0       ??_C@_0BP@EOFEMPOO@Invalid?5flash?5address?1length?$AN?6?$AA@ 0001feb0     oal_blcommon:blcommon.obj
 0001:0000eed0       ??_C@_0CC@DNECAMLM@?$CBOEMVERIFYMEMORY?3?5Invalid?5image?$AN@ 0001fed0     oal_blcommon:blcommon.obj
 0001:0000eef4       ??_C@_0DH@GJCJAHAP@?$FL?$CFd?$FN?3?5Address?$DN0x?$CFx?5?5Length?$DN0x?$CFx?5@ 0001fef4     oal_blcommon:blcommon.obj
 0001:0000ef2c       ??_C@_03ILDADBHF@RAM?$AA@  0001ff2c     oal_blcommon:blcommon.obj
 0001:0000ef30       ??_C@_05HPMNGINJ@FLASH?$AA@ 0001ff30     oal_blcommon:blcommon.obj
 0001:0000ef38       ??_C@_0BH@FIOKDOBJ@?$AN?6Completed?5file?$CIs?$CJ?3?$AN?6?$AA@ 0001ff38     oal_blcommon:blcommon.obj
 0001:0000ef50       ??_C@_0FC@PGPOMBFM@?9?9?9?9?9?9?9?9?9?9?9?9?9?9?9?9?9?9?9?9?9?9?9?9?9?9?9?9?9?9?9?9@ 0001ff50     oal_blcommon:blcommon.obj
 0001:0000efa4       ??_C@_0CE@NKAMCDHO@Unable?5to?5read?5image?5start?1lengt@ 0001ffa4     oal_blcommon:blcommon.obj
 0001:0000efc8       ??_C@_0DI@FDIIHFBA@?$CK?$CK?$CK?$CK?$CK?$CK?5Checksum?5failure?5on?5recor@ 0001ffc8     oal_blcommon:blcommon.obj
 0001:0000f000       ??_C@_0DD@KHJBCIED@?$CK?$CK?$CK?$CK?$CK?$CK?5Data?5record?5?$CFd?5corrupted?0@ 00020000     oal_blcommon:blcommon.obj
 0001:0000f034       ??_C@_0BD@PHLGNLDI@rom_offset?$DN0x?$CFx?4?$AN?6?$AA@ 00020034     oal_blcommon:blcommon.obj
 0001:0000f048       ??_C@_0EC@NABDPCJO@?$CK?$CK?5ERROR?3?5This?5boot?5loader?5does?5@ 00020048     oal_blcommon:blcommon.obj
 0001:0000f090       ??_C@_0EC@MIGFFFAC@?$CK?$CK?5ERROR?3?5This?5boot?5loader?5does?5@ 00020090     oal_blcommon:blcommon.obj
 0001:0000f0d4       ??_C@_06BEBGGBAB@?$AN?6?$CK?$CK?$AN?6?$AA@ 000200d4     oal_blcommon:blcommon.obj
 0001:0000f0e0       ??_C@_0GI@NIAHKKOO@?$CK?$CK?5ERROR?3?5The?5X000FF?5packet?5is?5a@ 000200e0     oal_blcommon:blcommon.obj
 0001:0000f148       ??_C@_0FO@KDFAPMNM@?$CK?$CK?5Please?5update?5your?5Platform?5B@ 00020148     oal_blcommon:blcommon.obj
 0001:0000f1a8       ??_C@_04IPBEALME@?$CK?$CK?$AN?6?$AA@ 000201a8     oal_blcommon:blcommon.obj
 0001:0000f1b0       ??_C@_0BI@OCFAEGPK@ROMHDR?5at?5Address?5?$CFXh?$AN?6?$AA@ 000201b0     oal_blcommon:blcommon.obj
 0001:0000f1c8       ??_C@_0CL@NOFKHKJC@System?5ready?$CB?$AN?6Preparing?5for?5dow@ 000201c8     oal_blcommon:blcommon.obj
 0001:0000f1f4       ??_C@_1DE@DAHNLBLJ@?$AA?9?$AAO?$AAA?$AAL?$AAP?$AAA?$AAt?$AAo?$AAV?$AAA?$AA?$CI?$AAv?$AAa?$AA?5?$AA?$DN?$AA?5?$AA0?$AAx?$AA?$CF?$AA0?$AA8?$AAx?$AA?$CJ?$AA?$AN?$AA?6?$AA?$AA@ 000201f4     oal_blmemory_arm:memory.obj
 0001:0000f228       ??_C@_1CO@JEIJEAKF@?$AA?$CL?$AAO?$AAA?$AAL?$AAP?$AAA?$AAt?$AAo?$AAV?$AAA?$AA?$CI?$AA0?$AAx?$AA?$CF?$AAx?$AA?0?$AA?5?$AA?$CF?$AAd?$AA?$CJ?$AA?$AN?$AA?6?$AA?$AA@ 00020228     oal_blmemory_arm:memory.obj
 0001:0000f258       ??_C@_1DA@BBOHBBNH@?$AA?9?$AAO?$AAA?$AAL?$AAV?$AAA?$AAt?$AAo?$AAP?$AAA?$AA?$CI?$AAp?$AAa?$AA?5?$AA?$DN?$AA?5?$AA0?$AAx?$AA?$CF?$AAx?$AA?$CJ?$AA?$AN?$AA?6?$AA?$AA@ 00020258     oal_blmemory_arm:memory.obj
 0001:0000f288       ??_C@_1GE@IPLNFFII@?$AAE?$AAR?$AAR?$AAO?$AAR?$AA?3?$AAO?$AAA?$AAL?$AAV?$AAA?$AAt?$AAo?$AAP?$AAA?$AA?3?$AA?5?$AAi?$AAn?$AAv?$AAa?$AAl?$AAi?$AAd?$AA?5?$AAv?$AAi?$AAr?$AAt?$AAu?$AAa?$AAl@ 00020288     oal_blmemory_arm:memory.obj
 0001:0000f2ec       ??_C@_1CK@LKNIEAFP@?$AA?$CL?$AAO?$AAA?$AAL?$AAV?$AAA?$AAt?$AAo?$AAP?$AAA?$AA?$CI?$AA0?$AAx?$AA?$CF?$AA0?$AA8?$AAx?$AA?$CJ?$AA?$AN?$AA?6?$AA?$AA@ 000202ec     oal_blmemory_arm:memory.obj
 0001:0000f31c       ??_C@_0CA@LIHOEDHI@failed?5to?5receive?5header?5data?$AN?6?$AA@ 0002031c     oal_blserial:serfuncs.obj
 0001:0000f33c       ??_C@_0BH@MJPKDDID@header?5checksum?5fail?$AN?6?$AA@ 0002033c     oal_blserial:serfuncs.obj
 0001:0000f354       ??_C@_0CF@PODCGAIM@failed?5to?5receive?5header?5signatu@ 00020354     oal_blserial:serfuncs.obj
 0001:0000f37c       ??_C@_0CJ@CHGIGMLG@received?5non?9download?5packet?5typ@ 0002037c     oal_blserial:serfuncs.obj
 0001:0000f3a8       ??_C@_0DG@MLEBFPEB@data?5checksum?5failure?4?5expected?5@ 000203a8     oal_blserial:serfuncs.obj
 0001:0000f3e0       ??_C@_0BN@FEFEJPIP@failed?5to?5read?5packet?5data?$AN?6?$AA@ 000203e0     oal_blserial:serfuncs.obj
 0001:0000f400       ??_C@_0CM@DECDFMCF@insufficient?5buffer?5size?$DL?5ignori@ 00020400     oal_blserial:serfuncs.obj
 0001:0000f42c       ??_C@_0BK@JKGMIDGI@header?5checksum?5failure?$AN?6?$AA@ 0002042c     oal_blserial:serfuncs.obj
 0001:0000f448       ??_C@_0BL@MMGBDAGN@failed?5to?5receive?5header?$AN?6?$AA@ 00020448     oal_blserial:serfuncs.obj
 0001:0000f464       ??_C@_0CE@HOCBBCP@Received?5out?5of?5sequence?5block?5?$CF@ 00020464     oal_blserial:serfuncs.obj
 0001:0000f488       ??_C@_0BE@KEIPDPMM@Expected?5block?5?$CFu?$AN?6?$AA@ 00020488     oal_blserial:serfuncs.obj
 0001:0000f49c       ??_C@_0BK@IPKIMKPH@Waiting?5for?5boot?5ack?4?4?4?$AN?6?$AA@ 0002049c     oal_blserial:serfuncs.obj
 0001:0000f4b8       ??_C@_0CK@DMEOPGMB@Got?5jump?5request?0?5KITL?5transport@ 000204b8     oal_blserial:serfuncs.obj
 0001:0000f578       ??_C@_0CO@ILGKAEEB@An?5OACK?5packet?5is?5the?5proper?5ack@ 00020578     eboot:tftpd.obj
 0001:0000f5a8       ??_C@_07JPIGAOKK@blksize?$AA@ 000205a8     eboot:tftpd.obj
 0001:0000f5b0       ??_C@_0FD@OCECBKGJ@There?5must?5be?5an?5even?5number?0?5an@ 000205b0     eboot:tftpd.obj
 0001:0000f604       ??_C@_0DB@LKOCKFPL@Illegal?5TFTP?5Operation?5?9?5Read?1Wr@ 00020604     eboot:tftpd.obj
 0001:0000f638       ??_C@_0CM@OBFBLHOG@There?5were?5no?5options?5detected?5i@ 00020638     eboot:tftpd.obj
 0001:0000f668       ??_C@_0FJ@NDFKPFHG@Illegal?5TFTP?5Option?5?9?5An?5option?5@ 00020668     eboot:tftpd.obj
 0001:0000f6c4       ??_C@_05DMMIBICK@?5?$CFd?4?6?$AA@ 000206c4     eboot:tftpd.obj
 0001:0000f6cc       ??_C@_0DO@FNNPCMEI@with?5a?5value?5that?5is?5out?5of?5rang@ 000206cc     eboot:tftpd.obj
 0001:0000f70c       ??_C@_0DL@CJPGPHL@with?5a?5value?5that?5is?5in?5range?4?6B@ 0002070c     eboot:tftpd.obj
 0001:0000f748       ??_C@_0BK@PFHMOFCD@The?5option?8s?5value?5is?5?$CFs?6?$AA@ 00020748     eboot:tftpd.obj
 0001:0000f764       ??_C@_0CH@HOPLKCLP@This?5TFTP?5packet?5contains?5?$CFd?5opt@ 00020764     eboot:tftpd.obj
 0001:0000f790       ??_C@_0EC@OALIGNGC@We?5currently?5only?5look?5at?5the?5fi@ 00020790     eboot:tftpd.obj
 0001:0000f7d4       ??_C@_0CB@FLKGPIDN@The?5packet?8s?5option?5name?5is?5?$CFs?4?6@ 000207d4     eboot:tftpd.obj
 0001:0000f7f8       ??_C@_0CG@JBBJIFDI@You?5must?5access?5files?5in?5binary?5@ 000207f8     eboot:tftpd.obj
 0001:0000f820       ??_C@_05IIBPGMLM@octet?$AA@ 00020820     eboot:tftpd.obj
 0001:0000f828       ??_C@_0BG@GIKNIKEH@Locked?5Down?5Link?5?$CFd?$AN?6?$AA@ 00020828     eboot:tftpd.obj
 0001:0000f840       ??_C@_0BF@JDGNCBEC@Src?5IP?5?$CFs?5Port?5?$CFH?5?5?5?$AA@ 00020840     eboot:tftpd.obj
 0001:0000f858       ??_C@_0BF@MOPBEBEN@Dest?5IP?5?$CFs?5Port?5?$CFH?$AN?6?$AA@ 00020858     eboot:tftpd.obj
 0001:0000f870       ??_C@_0CL@HCAEOMAE@Default?5TFTP?5block?5size?5set?5to?3?5@ 00020870     eboot:tftpd.obj
 0001:0000f89c       ??_C@_0DB@OCKCBBAL@No?5Server?5Process?5Associated?5Wit@ 0002089c     eboot:tftpd.obj
 0001:0000f8d0       ??_C@_0CM@GLFMKKGH@TFTP?5packet?5could?5have?5?$CFd?5name?1v@ 000208d0     eboot:tftpd.obj
 0001:0000f8fc       ??_C@_01EEMJAFIK@?6?$AA@   000208fc     eboot:tftpd.obj
 0001:0000f900       ??_C@_06CBLHAGFD@?$FLNULL?$FN?$AA@ 00020900     eboot:tftpd.obj
 0001:0000f908       ??_C@_02HAOIJKIC@?$CFc?$AA@ 00020908     eboot:tftpd.obj
 0001:0000f90c       ??_C@_0CC@GNCPKJCA@Packet?5has?5the?5following?5data?3?6?5@ 0002090c     eboot:tftpd.obj
 0001:0000f9c0       ??_C@_0BK@BFELHAIB@EthDown?3?3TFTPD_OPEN?3?3?$CFs?$AN?6?$AA@ 000209c0     eboot:ebsimp.obj
 0001:0000f9dc       ??_C@_0CF@NJGKJDPK@EthDown?3?3Illegal?5Operation?5Code?5@ 000209dc     eboot:ebsimp.obj
 0001:0000fa04       ??_C@_0BN@HCIGGCJK@Server?5Registration?5Failed?$AN?6?$AA@ 00020a04     eboot:ebsimp.obj
 0001:0000fa24       ??_C@_0CC@OIEKENJI@EbootSimpleTFTP?5not?5initialized?$AN@ 00020a24     eboot:ebsimp.obj
 0001:0000fa48       ??_C@_0BM@GELEBJHM@EbootGratuitousARP?5failed?$AN?6?$AA@ 00020a48     eboot:ebsimp.obj
 0001:0000fa64       ??_C@_0DG@LCJHGIIG@Some?5other?5station?5has?5IP?5Addres@ 00020a64     eboot:ebsimp.obj
 0001:0000fa9c       ??_C@_0DK@ECECEHHP@No?5ARP?5response?5in?5?$CFd?5seconds?0?5a@ 00020a9c     eboot:ebsimp.obj
 0001:0000fad8       ??_C@_0CO@EJPPGFNA@DHCP?5server?5is?5not?5responding?5?$CB?$CB@ 00020ad8     eboot:ebsimp.obj
 0001:0000fb08       ??_C@_0BL@PFCEMBID@Error?5On?5InitDHCP?$CI?$CJ?5Call?$AN?6?$AA@ 00020b08     eboot:ebsimp.obj
 0001:0000fb24       ??_C@_0DG@KEGBCNMH@Some?5other?5station?5has?5IP?5Addres@ 00020b24     eboot:ebsimp.obj
 0001:0000fb5c       ??_C@_0DA@PMFFKPM@Got?5Response?5from?5DHCP?5server?0?5I@ 00020b5c     eboot:ebsimp.obj
 0001:0000fb8c       ??_C@_0CB@PCBFMPDH@?9EbootSendBootmeAndWaitForTftp?$AN?6@ 00020b8c     eboot:ebsimp.obj
 0001:0000fbb0       ??_C@_0CB@EEDKKNBN@?$CLEbootSendBootmeAndWaitForTftp?$AN?6@ 00020bb0     eboot:ebsimp.obj
 0001:0000fbd4       ??_C@_08NMEDJLNE@boot?4bin?$AA@ 00020bd4     eboot:ebsimp.obj
 0001:0000fc70       ??_C@_0DJ@MEFFBBAC@TFTP?3?5Desktop?5losing?5ACK?0?5block?5@ 00020c70     eboot:tftp.obj
 0001:0000fcac       ??_C@_0DC@MHCCPLAO@TFtpStateMachine?3?3TFTP_STATE_CLO@ 00020cac     eboot:tftp.obj
 0001:0000fce0       ??_C@_0CH@DEDJGHKF@TFTP?5Error?5Received?5From?5Host?5?$CFX@ 00020ce0     eboot:tftp.obj
 0001:0000fd08       ??_C@_0CG@EEFEGPIL@TftpReceiver?0?5port?3?50x?$CFX?0?5wkp?3?50@ 00020d08     eboot:tftp.obj
 0001:0000fd30       ??_C@_0EA@EBMLKPMN@TFTP?5link?$FL?$CFu?$FN?3?5State?3?$CFu?0?5DestAdd@ 00020d30     eboot:tftp.obj
 0001:0000fe00       ??_C@_0IL@GCFKAKKH@Duplicate?5IP?5Address?5Detected?3?6?9@ 00020e00     eboot:udp.obj
 0001:0000fe8c       ??_C@_0CI@JEPIEHIP@?$CBCheckUDP?3?5UDP?5header?5checksum?5f@ 00020e8c     eboot:udp.obj
 0001:0000feb4       ??_C@_0CH@KMPJEONK@?$CBCheckUDP?3?5IP?5header?5checksum?5fa@ 00020eb4     eboot:udp.obj
 0001:0000fedc       ??_C@_0CD@OCEEFKNK@?$CBCheckUDP?3?5Not?5UDP?5?$CIproto?5?$DN?50x?$CFX@ 00020edc     eboot:udp.obj
 0001:0000ff90       ??_C@_0O@DFHLFDCO@netmask?3?5?$CFs?$AN?6?$AA@ 00020f90     eboot:dhcp.obj
 0001:0000ffa0       ??_C@_0DK@EEIOPNMG@ProcessDHCP?$CI?$CJ?3?3DHCP_INIT?3?3SendDH@ 00020fa0     eboot:dhcp.obj
 0001:0000ffdc       ??_C@_0BL@LBDFFECM@ProcessDHCP?$CI?$CJ?3?3DHCP_INIT?$AN?6?$AA@ 00020fdc     eboot:dhcp.obj
 0001:0000fff8       ??_C@_0DC@EKKEKBDC@ProcessDHCP?$CI?$CJ?3?3DHCP_SELECTING?3?3S@ 00020ff8     eboot:dhcp.obj
 0001:00010030       ??_C@_0FK@JNLIFC@ProcessDHCP?$CI?$CJ?3?3DHCP_SELECTING?3?3D@ 00021030     eboot:dhcp.obj
 0001:00010090       ??_C@_0FI@KEBKGIEO@ProcessDHCP?$CI?$CJ?3?3DHCP_SELECTING?3?3D@ 00021090     eboot:dhcp.obj
 0001:000100e8       ??_C@_0DC@KHEOJACB@?$AN?6ProcessDHCP?$CI?$CJ?3?3DHCP?5IP?5Address@ 000210e8     eboot:dhcp.obj
 0001:0001011c       ??_C@_0BJ@MEOPKMJJ@Lease?5time?3?5?$CFd?5seconds?$AN?6?$AA@ 0002111c     eboot:dhcp.obj
 0001:00010138       ??_C@_0FI@EHEELHEE@ProcessDHCP?$CI?$CJ?3?3DHCP_REQUESTING?3?3@ 00021138     eboot:dhcp.obj
 0001:00010190       ??_C@_0DE@BHBNDGEJ@ProcessDHCP?$CI?$CJ?5Error?5?9?5No?5DHCP?5Me@ 00021190     eboot:dhcp.obj
 0001:000101c4       ??_C@_0DO@EHKMGFMI@InitDHCP?$CI?$CJ?5Error?5?9?5First?5DHCP?5Op@ 000211c4     eboot:dhcp.obj
 0001:00010204       ??_C@_0CF@NLOHFKBD@InitDHCP?$CI?$CJ?3?3?5Calling?5ProcessDHCP@ 00021204     eboot:dhcp.obj
 0001:0001022c       ??_C@_0DB@JKAMMNCP@EbootDHCPRetransmit?$CI?$CJ?3?3Error?5On?5@ 0002122c     eboot:dhcp.obj
 0001:00010260       ??_C@_0CN@GEBEIIOD@SendDHCP?$CI?$CJ?3?3Error?5On?5DHCPRetrans@ 00021260     eboot:dhcp.obj
 0001:00010290       ??_C@_0CG@GEIANEBC@SendDHCP?$CI?$CJ?3?3Error?5On?5SendUDP?$CI?$CJ?5C@ 00021290     eboot:dhcp.obj
 0001:00010348       ??_C@_0BD@GIINPDL@Error?5in?5SendUDP?$AN?6?$AA@ 00021348     eboot:edbg.obj
 0001:0001035c       ??_C@_0CC@IFLECHKJ@Got?5EDBG_CMD_CONFIG?0?5flags?30x?$CFX?$AN@ 0002135c     eboot:edbg.obj
 0001:00010380       ??_C@_0BH@EBGODALL@Got?5EDBG_CMD_JUMPIMG?$AN?6?$AA@ 00021380     eboot:edbg.obj
 0001:00010398       ??_C@_0EE@BGOJJHDN@TFTP?5download?5started?5previously@ 00021398     eboot:edbg.obj
 0001:000103dc       ??_C@_0BE@MGGELJDD@Sent?5BOOTME?5to?5?$CFs?$AN?6?$AA@ 000213dc     eboot:edbg.obj
 0001:000103f0       ??_C@_0CI@BKOJILAL@SendBootme?$CI?$CJ?3?3Error?5on?5SendUDP?$CI?$CJ@ 000213f0     eboot:edbg.obj
 0001:000104a8       ??_C@_1CC@PNKMBGCL@?$AA?9?$AAO?$AAA?$AAL?$AAA?$AAr?$AAg?$AAs?$AAI?$AAn?$AAi?$AAt?$AA?$CI?$AA?$CJ?$AA?$AN?$AA?6?$AA?$AA@ 000214a8     s3c6410_args:args.obj
 0001:000104cc       ??_C@_1BM@PBHBBHJD@?$AAp?$AAA?$AAr?$AAg?$AAs?$AA?5?$AA?3?$AA0?$AAx?$AA?$CF?$AAx?$AA?$AN?$AA?6?$AA?$AA@ 000214cc     s3c6410_args:args.obj
 0001:000104e8       ??_C@_1GI@NAELMLKD@?$AAA?$AAr?$AAg?$AAu?$AAm?$AAe?$AAn?$AAt?$AAs?$AA?5?$AAa?$AAr?$AAe?$AAa?$AA?5?$AAh?$AAa?$AAs?$AA?5?$AAs?$AAo?$AAm?$AAe?$AA?5?$AAv?$AAa?$AAl?$AAu?$AAe?$AAs?$AA?4?$AA?5@ 000214e8     s3c6410_args:args.obj
 0001:00010550       ??_C@_1EA@GBPBKONK@?$AAA?$AAr?$AAg?$AAu?$AAm?$AAe?$AAn?$AAt?$AAs?$AA?5?$AAa?$AAr?$AAe?$AAa?$AA?5?$AAi?$AAs?$AA?5?$AAi?$AAn?$AAi?$AAt?$AAi?$AAa?$AAl?$AAi?$AAz?$AAe?$AAd?$AA?$AN?$AA?6?$AA?$AA@ 00021550     s3c6410_args:args.obj
 0001:00010590       ??_C@_1BI@EKLMLBKB@?$AAS?$AAo?$AAc?$AAI?$AAD?$AA?3?$AA0?$AAx?$AA?$CF?$AAx?$AA?6?$AA?$AA@ 00021590     s3c6410_args:args.obj
 0001:000105a8       ??_C@_1CC@CGKBPAJP@?$AA?$CL?$AAO?$AAA?$AAL?$AAA?$AAr?$AAg?$AAs?$AAI?$AAn?$AAi?$AAt?$AA?$CI?$AA?$CJ?$AA?$AN?$AA?6?$AA?$AA@ 000215a8     s3c6410_args:args.obj
 0001:000105d0       ??_C@_1EA@DJGHLELP@?$AA?9?$AAO?$AAA?$AAL?$AAA?$AAr?$AAg?$AAs?$AAQ?$AAu?$AAe?$AAr?$AAy?$AA?$CI?$AAp?$AAD?$AAa?$AAt?$AAa?$AA?5?$AA?$DN?$AA?5?$AA0?$AAx?$AA?$CF?$AA0?$AA8?$AAx?$AA?$CJ?$AA?$AN?$AA?6?$AA?$AA@ 000215d0     s3c6410_args:args.obj
 0001:00010610       ??_C@_1EM@ODHMAKKI@?$AA?$FL?$AAO?$AAA?$AAL?$AA?3?$AAE?$AAR?$AAR?$AA?$FN?$AA?5?$AAA?$AAr?$AAg?$AAu?$AAm?$AAe?$AAn?$AAt?$AAs?$AA?5?$AAa?$AAr?$AAe?$AAa?$AA?5?$AAi?$AAs?$AA?5?$AAi?$AAn?$AAv?$AAa@ 00021610     s3c6410_args:args.obj
 0001:0001065c       ??_C@_1CI@CLMEBIJE@?$AA?$CL?$AAO?$AAA?$AAL?$AAA?$AAr?$AAg?$AAs?$AAQ?$AAu?$AAe?$AAr?$AAy?$AA?$CI?$AA?$CF?$AAd?$AA?$CJ?$AA?$AN?$AA?6?$AA?$AA@ 0002165c     s3c6410_args:args.obj
 0001:00010684       ??_C@_05MBDEGLCK@ERROR?$AA@ 00021684     extpowerctl_lib:ExtPowerCTL_LIB.obj
 0001:0001068c       ??_C@_03GDJFABIP@CAM?$AA@  0002168c     extpowerctl_lib:ExtPowerCTL_LIB.obj
 0001:00010690       ??_C@_04FOAJLA@WIFI?$AA@   00021690     extpowerctl_lib:ExtPowerCTL_LIB.obj
 0001:00010698       ??_C@_03CBGEMLIN@ETH?$AA@  00021698     extpowerctl_lib:ExtPowerCTL_LIB.obj
 0001:0001069c       ??_C@_04DIHPNBI@DAC1?$AA@  0002169c     extpowerctl_lib:ExtPowerCTL_LIB.obj
 0001:000106a4       ??_C@_04BKJMMMFJ@DAC0?$AA@ 000216a4     extpowerctl_lib:ExtPowerCTL_LIB.obj
 0001:000106ac       ??_C@_03OJLAHOPO@LCD?$AA@  000216ac     extpowerctl_lib:ExtPowerCTL_LIB.obj
 0001:000106b0       ??_C@_03IONNGCBN@USB?$AA@  000216b0     extpowerctl_lib:ExtPowerCTL_LIB.obj
 0001:000106b4       ??_C@_06EOPOAAHK@CUSTOM?$AA@ 000216b4     extpowerctl_lib:ExtPowerCTL_LIB.obj
 0001:000106bc       ??_C@_08MDDIMDJM@DEFAULTS?$AA@ 000216bc     extpowerctl_lib:ExtPowerCTL_LIB.obj
 0001:000106c8       ??_C@_02BFICIOJL@ON?$AA@   000216c8     extpowerctl_lib:ExtPowerCTL_LIB.obj
 0001:000106cc       ??_C@_03MPPIHBHJ@OFF?$AA@  000216cc     extpowerctl_lib:ExtPowerCTL_LIB.obj
 0001:00010760       ??_C@_1JC@LKKAGJEB@?$AA?$FL?$AAD?$AAI?$AAS?$AAP?$AA?3?$AAE?$AAR?$AAR?$AA?$FN?$AA?5?$AAD?$AAi?$AAs?$AAp?$AA_?$AAi?$AAn?$AAi?$AAt?$AAi?$AAa?$AAl?$AAi?$AAz?$AAe?$AA_?$AAr?$AAe?$AAg?$AAi?$AAs@ 00021760     s3c6410_disp_lib:s3c6410_display_con.obj
 0001:000107f8       ??_C@_1JG@BHJNKNGM@?$AA?$FL?$AAD?$AAI?$AAS?$AAP?$AA?3?$AAE?$AAR?$AAR?$AA?$FN?$AA?5?$AAD?$AAi?$AAs?$AAp?$AA_?$AAs?$AAe?$AAt?$AA_?$AAo?$AAu?$AAt?$AAp?$AAu?$AAt?$AA_?$AAd?$AAe?$AAv?$AAi?$AAc@ 000217f8     s3c6410_disp_lib:s3c6410_display_con.obj
 0001:00010890       ??_C@_1IC@FAGLBCCG@?$AA?$FL?$AAD?$AAI?$AAS?$AAP?$AA?3?$AAE?$AAR?$AAR?$AA?$FN?$AA?5?$AAD?$AAi?$AAs?$AAp?$AA_?$AAs?$AAe?$AAt?$AA_?$AAf?$AAr?$AAa?$AAm?$AAe?$AAb?$AAu?$AAf?$AAf?$AAe?$AAr?$AA?$CI@ 00021890     s3c6410_disp_lib:s3c6410_display_con.obj
 0001:00010918       ??_C@_1HC@PHJBFECK@?$AA?$FL?$AAD?$AAI?$AAS?$AAP?$AA?3?$AAE?$AAR?$AAR?$AA?$FN?$AA?5?$AAD?$AAi?$AAs?$AAp?$AA_?$AAe?$AAn?$AAv?$AAi?$AAd?$AA_?$AAo?$AAn?$AAo?$AAf?$AAf?$AA?$CI?$AA?$CJ?$AA?5?$AA?3?$AA?5@ 00021918     s3c6410_disp_lib:s3c6410_display_con.obj
 0001:00010990       ??_C@_1HO@JKCBCOKM@?$AA?$FL?$AAD?$AAI?$AAS?$AAP?$AA?3?$AAE?$AAR?$AAR?$AA?$FN?$AA?5?$AAD?$AAi?$AAs?$AAp?$AA_?$AAw?$AAi?$AAn?$AAd?$AAo?$AAw?$AA_?$AAo?$AAn?$AAf?$AAo?$AAf?$AAf?$AA?$CI?$AA?$CJ?$AA?5@ 00021990     s3c6410_disp_lib:s3c6410_display_con.obj
 0001:00010a10       ??_C@_1IC@BPLBPEFA@?$AA?$FL?$AAD?$AAI?$AAS?$AAP?$AA?3?$AAE?$AAR?$AAR?$AA?$FN?$AA?5?$AAD?$AAi?$AAs?$AAp?$AA_?$AAw?$AAi?$AAn?$AAd?$AAo?$AAw?$AA_?$AAo?$AAn?$AAf?$AAo?$AAf?$AAf?$AA?$CI?$AA?$CJ?$AA?5@ 00021a10     s3c6410_disp_lib:s3c6410_display_con.obj
 0001:00010a98       ??_C@_1NE@DNJMFFHB@?$AA?$FL?$AAD?$AAI?$AAS?$AAP?$AA?3?$AAE?$AAR?$AAR?$AA?$FN?$AA?5?$AAD?$AAi?$AAs?$AAp?$AA_?$AAw?$AAi?$AAn?$AAd?$AAo?$AAw?$AA0?$AA_?$AAi?$AAn?$AAi?$AAt?$AAi?$AAa?$AAl?$AAi@ 00021a98     s3c6410_disp_lib:s3c6410_display_con.obj
 0001:00010b70       ??_C@_1IG@JCJMCNBJ@?$AA?$FL?$AAD?$AAI?$AAS?$AAP?$AA?3?$AAE?$AAR?$AAR?$AA?$FN?$AA?5?$AAD?$AAi?$AAs?$AAp?$AA_?$AAw?$AAi?$AAn?$AAd?$AAo?$AAw?$AA0?$AA_?$AAi?$AAn?$AAi?$AAt?$AAi?$AAa?$AAl?$AAi@ 00021b70     s3c6410_disp_lib:s3c6410_display_con.obj
 0001:00010bf8       ??_C@_1IM@JLLCKNDJ@?$AA?$FL?$AAD?$AAI?$AAS?$AAP?$AA?3?$AAE?$AAR?$AAR?$AA?$FN?$AA?5?$AAD?$AAi?$AAs?$AAp?$AA_?$AAw?$AAi?$AAn?$AAd?$AAo?$AAw?$AA0?$AA_?$AAi?$AAn?$AAi?$AAt?$AAi?$AAa?$AAl?$AAi@ 00021bf8     s3c6410_disp_lib:s3c6410_display_con.obj
 0001:00010c88       ??_C@_1JM@FMPOPADO@?$AA?$FL?$AAD?$AAI?$AAS?$AAP?$AA?3?$AAE?$AAR?$AAR?$AA?$FN?$AA?5?$AAD?$AAi?$AAs?$AAp?$AA_?$AAw?$AAi?$AAn?$AAd?$AAo?$AAw?$AA1?$AA_?$AAi?$AAn?$AAi?$AAt?$AAi?$AAa?$AAl?$AAi@ 00021c88     s3c6410_disp_lib:s3c6410_display_con.obj
 0001:00010d28       ??_C@_1IG@HBJLBKGG@?$AA?$FL?$AAD?$AAI?$AAS?$AAP?$AA?3?$AAE?$AAR?$AAR?$AA?$FN?$AA?5?$AAD?$AAi?$AAs?$AAp?$AA_?$AAw?$AAi?$AAn?$AAd?$AAo?$AAw?$AA1?$AA_?$AAi?$AAn?$AAi?$AAt?$AAi?$AAa?$AAl?$AAi@ 00021d28     s3c6410_disp_lib:s3c6410_display_con.obj
 0001:00010db0       ??_C@_1IM@EELECAPL@?$AA?$FL?$AAD?$AAI?$AAS?$AAP?$AA?3?$AAE?$AAR?$AAR?$AA?$FN?$AA?5?$AAD?$AAi?$AAs?$AAp?$AA_?$AAw?$AAi?$AAn?$AAd?$AAo?$AAw?$AA1?$AA_?$AAi?$AAn?$AAi?$AAt?$AAi?$AAa?$AAl?$AAi@ 00021db0     s3c6410_disp_lib:s3c6410_display_con.obj
 0001:00010e40       ??_C@_1JM@OPGKAHP@?$AA?$FL?$AAD?$AAI?$AAS?$AAP?$AA?3?$AAE?$AAR?$AAR?$AA?$FN?$AA?5?$AAD?$AAi?$AAs?$AAp?$AA_?$AAw?$AAi?$AAn?$AAd?$AAo?$AAw?$AA2?$AA_?$AAi?$AAn?$AAi?$AAt?$AAi?$AAa?$AAl?$AAi@ 00021e40     s3c6410_disp_lib:s3c6410_display_con.obj
 0001:00010ee0       ??_C@_1IG@IPODEFKG@?$AA?$FL?$AAD?$AAI?$AAS?$AAP?$AA?3?$AAE?$AAR?$AAR?$AA?$FN?$AA?5?$AAD?$AAi?$AAs?$AAp?$AA_?$AAw?$AAi?$AAn?$AAd?$AAo?$AAw?$AA2?$AA_?$AAi?$AAn?$AAi?$AAt?$AAi?$AAa?$AAl?$AAi@ 00021ee0     s3c6410_disp_lib:s3c6410_display_con.obj
 0001:00010f68       ??_C@_1IM@POMOLAPM@?$AA?$FL?$AAD?$AAI?$AAS?$AAP?$AA?3?$AAE?$AAR?$AAR?$AA?$FN?$AA?5?$AAD?$AAi?$AAs?$AAp?$AA_?$AAw?$AAi?$AAn?$AAd?$AAo?$AAw?$AA2?$AA_?$AAi?$AAn?$AAi?$AAt?$AAi?$AAa?$AAl?$AAi@ 00021f68     s3c6410_disp_lib:s3c6410_display_con.obj
 0001:00010ff8       ??_C@_1JM@DPAOJAEA@?$AA?$FL?$AAD?$AAI?$AAS?$AAP?$AA?3?$AAE?$AAR?$AAR?$AA?$FN?$AA?5?$AAD?$AAi?$AAs?$AAp?$AA_?$AAw?$AAi?$AAn?$AAd?$AAo?$AAw?$AA3?$AA_?$AAi?$AAn?$AAi?$AAt?$AAi?$AAa?$AAl?$AAi@ 00021ff8     s3c6410_disp_lib:s3c6410_display_con.obj
 0001:00011098       ??_C@_1IG@GMOEHCNJ@?$AA?$FL?$AAD?$AAI?$AAS?$AAP?$AA?3?$AAE?$AAR?$AAR?$AA?$FN?$AA?5?$AAD?$AAi?$AAs?$AAp?$AA_?$AAw?$AAi?$AAn?$AAd?$AAo?$AAw?$AA3?$AA_?$AAi?$AAn?$AAi?$AAt?$AAi?$AAa?$AAl?$AAi@ 00022098     s3c6410_disp_lib:s3c6410_display_con.obj
 0001:00011120       ??_C@_1JM@KKOGAAPN@?$AA?$FL?$AAD?$AAI?$AAS?$AAP?$AA?3?$AAE?$AAR?$AAR?$AA?$FN?$AA?5?$AAD?$AAi?$AAs?$AAp?$AA_?$AAw?$AAi?$AAn?$AAd?$AAo?$AAw?$AA4?$AA_?$AAi?$AAn?$AAi?$AAt?$AAi?$AAa?$AAl?$AAi@ 00022120     s3c6410_disp_lib:s3c6410_display_con.obj
 0001:000111c0       ??_C@_1IG@KIGCPMGH@?$AA?$FL?$AAD?$AAI?$AAS?$AAP?$AA?3?$AAE?$AAR?$AAR?$AA?$FN?$AA?5?$AAD?$AAi?$AAs?$AAp?$AA_?$AAw?$AAi?$AAn?$AAd?$AAo?$AAw?$AA4?$AA_?$AAi?$AAn?$AAi?$AAt?$AAi?$AAa?$AAl?$AAi@ 000221c0     s3c6410_disp_lib:s3c6410_display_con.obj
 0001:00011248       ??_C@_1IO@CKLMPNJB@?$AA?$FL?$AAD?$AAI?$AAS?$AAP?$AA?3?$AAE?$AAR?$AAR?$AA?$FN?$AA?5?$AA?9?$AA?9?$AAD?$AAi?$AAs?$AAp?$AA_?$AAg?$AAe?$AAt?$AA_?$AAv?$AAc?$AAl?$AAk?$AA_?$AAd?$AAi?$AAr?$AAe?$AAc@ 00022248     s3c6410_disp_lib:s3c6410_display_con.obj
 0001:000112d8       ??_C@_1JG@JPHKDNBF@?$AA?$FL?$AAD?$AAI?$AAS?$AAP?$AA?3?$AAE?$AAR?$AAR?$AA?$FN?$AA?5?$AA?9?$AA?9?$AAD?$AAi?$AAs?$AAp?$AA_?$AAg?$AAe?$AAt?$AA_?$AAv?$AAc?$AAl?$AAk?$AA_?$AAd?$AAi?$AAr?$AAe?$AAc@ 000222d8     s3c6410_disp_lib:s3c6410_display_con.obj
 0001:00011370       ??_C@_1CO@BMBJNEOH@?$AA?$FL?$AAD?$AAI?$AAS?$AAP?$AA?3?$AAE?$AAR?$AAR?$AA?$FN?$AA?5?$AAb?$AA4?$AA?5?$AAs?$AAw?$AAi?$AAt?$AAc?$AAh?$AA?6?$AA?$AN?$AA?$AA@ 00022370     s3c6410_disp_lib:s3c6410_display_con.obj
 0001:000113a0       ??_C@_1KA@LNLOJJH@?$AA?$FL?$AAD?$AAI?$AAS?$AAP?$AA?3?$AAE?$AAR?$AAR?$AA?$FN?$AA?5?$AA?9?$AA?9?$AAD?$AAi?$AAs?$AAp?$AA_?$AAg?$AAe?$AAt?$AA_?$AAv?$AAc?$AAl?$AAk?$AA_?$AAd?$AAi?$AAr?$AAe?$AAc@ 000223a0     s3c6410_disp_lib:s3c6410_display_con.obj
 0001:00011440       ??_C@_1GM@CIEEGHDB@?$AA?$FL?$AAD?$AAI?$AAS?$AAP?$AA?$FN?$AA?5?$AA?9?$AA?9?$AAD?$AAi?$AAs?$AAp?$AA_?$AAg?$AAe?$AAt?$AA_?$AAv?$AAc?$AAl?$AAk?$AA_?$AAd?$AAi?$AAr?$AAe?$AAc?$AAt?$AAi?$AAo?$AAn@ 00022440     s3c6410_disp_lib:s3c6410_display_con.obj
 0001:000114b0       ??_C@_1GO@DLLMKPBM@?$AA?$FL?$AAD?$AAI?$AAS?$AAP?$AA?$FN?$AA?$CL?$AA?$CL?$AAD?$AAi?$AAs?$AAp?$AA_?$AAg?$AAe?$AAt?$AA_?$AAv?$AAc?$AAl?$AAk?$AA_?$AAd?$AAi?$AAr?$AAe?$AAc?$AAt?$AAi?$AAo?$AAn?$AA_@ 000224b0     s3c6410_disp_lib:s3c6410_display_con.obj
 0001:00011520       ??_C@_1IG@DCBBEGAK@?$AA?$FL?$AAD?$AAI?$AAS?$AAP?$AA?3?$AAE?$AAR?$AAR?$AA?$FN?$AA?5?$AAD?$AAi?$AAs?$AAp?$AA_?$AAs?$AAe?$AAt?$AA_?$AAw?$AAi?$AAn?$AAd?$AAo?$AAw?$AA_?$AAm?$AAo?$AAd?$AAe?$AA?$CI@ 00022520     s3c6410_disp_lib:s3c6410_display_con.obj
 0001:000115a8       ??_C@_1II@KINNDNHE@?$AA?$FL?$AAD?$AAI?$AAS?$AAP?$AA?3?$AAE?$AAR?$AAR?$AA?$FN?$AA?5?$AAD?$AAi?$AAs?$AAp?$AA_?$AAi?$AAn?$AAi?$AAt?$AAi?$AAa?$AAl?$AAi?$AAz?$AAe?$AA_?$AAR?$AAG?$AAB?$AAI?$AAF@ 000225a8     s3c6410_disp_lib:s3c6410_display_con.obj
 0001:00011630       ??_C@_1JM@JBMEAPMH@?$AA?$FL?$AAD?$AAI?$AAS?$AAP?$AA?3?$AAE?$AAR?$AAR?$AA?$FN?$AA?5?$AAD?$AAi?$AAs?$AAp?$AA_?$AAi?$AAn?$AAi?$AAt?$AAi?$AAa?$AAl?$AAi?$AAz?$AAe?$AA_?$AAR?$AAG?$AAB?$AAI?$AAF@ 00022630     s3c6410_disp_lib:s3c6410_display_con.obj
 0001:000116d0       ??_C@_1LC@OKJOEMOF@?$AA?$FL?$AAD?$AAI?$AAS?$AAP?$AA?3?$AAE?$AAR?$AAR?$AA?$FN?$AA?5?$AAD?$AAi?$AAs?$AAp?$AA_?$AAi?$AAn?$AAi?$AAt?$AAi?$AAa?$AAl?$AAi?$AAz?$AAe?$AA_?$AAo?$AAu?$AAt?$AAp?$AAu@ 000226d0     s3c6410_disp_lib:s3c6410_display_con.obj
 0001:00011788       ??_C@_1KG@OBBOBCFG@?$AA?$FL?$AAD?$AAI?$AAS?$AAP?$AA?3?$AAE?$AAR?$AAR?$AA?$FN?$AA?5?$AAD?$AAi?$AAs?$AAp?$AA_?$AAi?$AAn?$AAi?$AAt?$AAi?$AAa?$AAl?$AAi?$AAz?$AAe?$AA_?$AAo?$AAu?$AAt?$AAp?$AAu@ 00022788     s3c6410_disp_lib:s3c6410_display_con.obj
 0001:00011830       ??_C@_0N@MNHBCMKH@VGA_1024x768?$AA@ 00022830     s3c6410_ldi_lib:s3c6410_ldi.obj
 0001:00011840       ??_C@_0M@GJHCBNAO@VGA_800x600?$AA@ 00022840     s3c6410_ldi_lib:s3c6410_ldi.obj
 0001:0001184c       ??_C@_0M@CMKNLCBM@VGA_640x480?$AA@ 0002284c     s3c6410_ldi_lib:s3c6410_ldi.obj
 0001:00011858       ??_C@_0P@NJGMKNKB@MegaDisplay?510?$AA@ 00022858     s3c6410_ldi_lib:s3c6410_ldi.obj
 0001:00011868       ??_C@_0BA@OAJNNLGN@MegaDisplay?55HD?$AA@ 00022868     s3c6410_ldi_lib:s3c6410_ldi.obj
 0001:00011878       ??_C@_0BA@PAOOJHPM@MegaDisplay?55SD?$AA@ 00022878     s3c6410_ldi_lib:s3c6410_ldi.obj
 0001:00011888       ??_C@_0P@GMFNIFGL@MegaDisplay?57N?$AA@ 00022888     s3c6410_ldi_lib:s3c6410_ldi.obj
 0001:00011898       ??_C@_0O@MKHEOKMD@MegaDisplay?57?$AA@ 00022898     s3c6410_ldi_lib:s3c6410_ldi.obj
 0001:000118a8       ??_C@_0O@OBFJLJAA@MegaDisplay?54?$AA@ 000228a8     s3c6410_ldi_lib:s3c6410_ldi.obj
 0001:000118b8       ??_C@_0O@KOBICPMH@MegaDisplay?53?$AA@ 000228b8     s3c6410_ldi_lib:s3c6410_ldi.obj
 0001:000118c8       ??_C@_04OKGDLNCL@NONE?$AA@ 000228c8     s3c6410_ldi_lib:s3c6410_ldi.obj
 0001:000118d0       ??_C@_06DJKJCCMC@LP3303?$AA@ 000228d0     s3c6410_ldi_lib:s3c6410_ldi.obj
 0001:000118d8       ??_C@_06LMLJGLPA@direct?$AA@ 000228d8     s3c6410_ldi_lib:s3c6410_ldi.obj
 0001:000118e0       ??_C@_08GOJFCIDL@SM8121AH?$AA@ 000228e0     s3c6410_ldi_lib:s3c6410_ldi.obj
 0001:00011a10       ??_C@_1HK@PFPKCOID@?$AAE?$AAR?$AAR?$AAO?$AAR?$AA?3?$AA?5?$AAU?$AAs?$AAb?$AAD?$AAb?$AAg?$AAS?$AAe?$AAr?$AA?3?$AA?3?$AA?5?$AAN?$AAo?$AAt?$AA?5?$AAc?$AAo?$AAn?$AAn?$AAe?$AAc?$AAt?$AAe?$AAd@ 00022a10     oal_usbdbgsermdd:serifc.obj
 0001:00011a90       ??_C@_1EI@BLNDGIHO@?$AAU?$AAs?$AAb?$AAD?$AAb?$AAg?$AAS?$AAe?$AAr?$AA?3?$AA?3?$AA?5?$AAi?$AAn?$AAi?$AAt?$AAi?$AAa?$AAl?$AAi?$AAz?$AAa?$AAt?$AAi?$AAo?$AAn?$AA?3?$AA?5?$AAF?$AAa?$AAi?$AAl@ 00022a90     oal_usbdbgsermdd:serifc.obj
 0001:00011ad8       ??_C@_1EM@BKONKMFM@?$AAU?$AAs?$AAb?$AAD?$AAb?$AAg?$AAS?$AAe?$AAr?$AA?3?$AA?3?$AA?5?$AAi?$AAn?$AAi?$AAt?$AAi?$AAa?$AAl?$AAi?$AAz?$AAa?$AAt?$AAi?$AAo?$AAn?$AA?3?$AA?5?$AAS?$AAu?$AAc?$AAc@ 00022ad8     oal_usbdbgsermdd:serifc.obj
 0001:00011b28       ??_C@_1GO@GGBLOB@?$AAU?$AAs?$AAb?$AAD?$AAb?$AAg?$AAS?$AAe?$AAr?$AA?3?$AA?3?$AA?5?$AAi?$AAn?$AAi?$AAt?$AAi?$AAa?$AAl?$AAi?$AAz?$AAa?$AAt?$AAi?$AAo?$AAn?$AA?3?$AA?5?$AAU?$AAs?$AAb?$AAS@ 00022b28     oal_usbdbgsermdd:serifc.obj
 0001:00011b98       ??_C@_1EA@BOFKDMLH@?$AA?9?$AAU?$AAs?$AAb?$AAD?$AAb?$AAg?$AAS?$AAe?$AAr?$AAi?$AAa?$AAl?$AA_?$AAS?$AAe?$AAn?$AAd?$AA?3?$AA?5?$AAr?$AAe?$AAt?$AAV?$AAa?$AAl?$AA?$DN?$AA?$CF?$AAd?$AA?$AN?$AA?6?$AA?$AA@ 00022b98     oal_usbdbgsermdd:serifc.obj
 0001:00011bd8       ??_C@_1GE@EPMJFBEJ@?$AA?5?$AAU?$AAs?$AAb?$AAD?$AAb?$AAg?$AAS?$AAe?$AAr?$AAi?$AAa?$AAl?$AA_?$AAS?$AAe?$AAn?$AAd?$AA?3?$AA?5?$AAE?$AAr?$AAr?$AAo?$AAr?$AA?3?$AA?5?$AAS?$AAe?$AAn?$AAd?$AAD@ 00022bd8     oal_usbdbgsermdd:serifc.obj
 0001:00011c40       ??_C@_1EM@LCFJBCDF@?$AA?5?$AAU?$AAs?$AAb?$AAD?$AAb?$AAg?$AAS?$AAe?$AAr?$AAi?$AAa?$AAl?$AA_?$AAS?$AAe?$AAn?$AAd?$AA?3?$AA?5?$AAE?$AAr?$AAr?$AAo?$AAr?$AA?3?$AA?5?$AAn?$AAu?$AAl?$AAl?$AA?5@ 00022c40     oal_usbdbgsermdd:serifc.obj
 0001:00011c8c       ??_C@_1DM@ONBGJBGA@?$AA?$CL?$AAU?$AAs?$AAb?$AAD?$AAb?$AAg?$AAS?$AAe?$AAr?$AAi?$AAa?$AAl?$AA_?$AAS?$AAe?$AAn?$AAd?$AA?3?$AA?5?$AAs?$AAi?$AAz?$AAe?$AA?$DN?$AA?$CF?$AAd?$AA?$AN?$AA?6?$AA?$AA@ 00022c8c     oal_usbdbgsermdd:serifc.obj
 0001:00011cc8       ??_C@_1EC@OONAKNKA@?$AA?9?$AAU?$AAs?$AAb?$AAD?$AAb?$AAg?$AAS?$AAe?$AAr?$AAi?$AAa?$AAl?$AA_?$AAR?$AAe?$AAc?$AAv?$AA?3?$AA?5?$AAc?$AAb?$AAR?$AAe?$AAc?$AAv?$AAd?$AA?$DN?$AA?$CF?$AAd?$AA?$AN?$AA?6@ 00022cc8     oal_usbdbgsermdd:serifc.obj
 0001:00011d10       ??_C@_1EM@NGEIEKB@?$AA?5?$AAU?$AAs?$AAb?$AAD?$AAb?$AAg?$AAS?$AAe?$AAr?$AAi?$AAa?$AAl?$AA_?$AAR?$AAe?$AAc?$AAv?$AA?3?$AA?5?$AAE?$AAr?$AAr?$AAo?$AAr?$AA?3?$AA?5?$AAn?$AAu?$AAl?$AAl?$AA?5@ 00022d10     oal_usbdbgsermdd:serifc.obj
 0001:00011d60       ??_C@_1EC@DMCHBDG@?$AA?$CL?$AAU?$AAs?$AAb?$AAD?$AAb?$AAg?$AAS?$AAe?$AAr?$AAi?$AAa?$AAl?$AA_?$AAR?$AAe?$AAc?$AAv?$AA?3?$AA?5?$AAb?$AAu?$AAf?$AAS?$AAi?$AAz?$AAe?$AA?$DN?$AA?$CF?$AAd?$AA?$AN?$AA?6@ 00022d60     oal_usbdbgsermdd:serifc.obj
 0001:00012040       ??_C@_1DM@EEGABLCD@?$AAu?$AAs?$AAb?$AAd?$AAb?$AAg?$AA?3?$AA?9?$AAC?$AAo?$AAn?$AAt?$AAi?$AAn?$AAu?$AAe?$AAR?$AAx?$AAT?$AAr?$AAa?$AAn?$AAs?$AAf?$AAe?$AAr?$AA?4?$AA?$AN?$AA?6?$AA?$AA@ 00023040     oal_usbdbgsermdd:usbser.obj
 0001:00012080       ??_C@_1GA@PDGHKEBE@?$AAW?$AAA?$AAR?$AAN?$AA?$CB?$AA?3?$AAu?$AAs?$AAb?$AAd?$AAb?$AAg?$AA?3?$AAR?$AAx?$AA?5?$AAx?$AAf?$AAe?$AAr?$AA?5?$AAn?$AAo?$AAt?$AA?5?$AAi?$AAn?$AA?5?$AAp?$AAr?$AAo?$AAg@ 00023080     oal_usbdbgsermdd:usbser.obj
 0001:000120e0       ??_C@_1DM@JPKEEEAI@?$AAu?$AAs?$AAb?$AAd?$AAb?$AAg?$AA?3?$AA?$CL?$AAC?$AAo?$AAn?$AAt?$AAi?$AAn?$AAu?$AAe?$AAR?$AAx?$AAT?$AAr?$AAa?$AAn?$AAs?$AAf?$AAe?$AAr?$AA?4?$AA?$AN?$AA?6?$AA?$AA@ 000230e0     oal_usbdbgsermdd:usbser.obj
 0001:0001211c       ??_C@_1DM@EBNMBFGN@?$AAu?$AAs?$AAb?$AAd?$AAb?$AAg?$AA?3?$AA?9?$AAC?$AAo?$AAn?$AAt?$AAi?$AAn?$AAu?$AAe?$AAT?$AAx?$AAT?$AAr?$AAa?$AAn?$AAs?$AAf?$AAe?$AAr?$AA?4?$AA?$AN?$AA?6?$AA?$AA@ 0002311c     oal_usbdbgsermdd:usbser.obj
 0001:00012158       ??_C@_1GA@PPECDDCP@?$AAW?$AAA?$AAR?$AAN?$AA?$CB?$AA?3?$AAu?$AAs?$AAb?$AAd?$AAb?$AAg?$AA?3?$AAT?$AAx?$AA?5?$AAx?$AAf?$AAe?$AAr?$AA?5?$AAn?$AAo?$AAt?$AA?5?$AAi?$AAn?$AA?5?$AAp?$AAr?$AAo?$AAg@ 00023158     oal_usbdbgsermdd:usbser.obj
 0001:000121b8       ??_C@_1EG@PCHOOLPC@?$AAu?$AAs?$AAb?$AAd?$AAb?$AAg?$AA?3?$AA?$CL?$AAC?$AAo?$AAn?$AAt?$AAi?$AAn?$AAu?$AAe?$AAT?$AAx?$AAT?$AAr?$AAa?$AAn?$AAs?$AAf?$AAe?$AAr?$AA?4?$AA?5?$AAe?$AAp?$AA?$CF?$AAd@ 000231b8     oal_usbdbgsermdd:usbser.obj
 0001:00012200       ??_C@_1EK@EPOFPAAG@?$AAu?$AAs?$AAb?$AAd?$AAb?$AAg?$AA?3?$AA?9?$AAS?$AAe?$AAn?$AAd?$AAC?$AAo?$AAn?$AAt?$AAr?$AAo?$AAl?$AAS?$AAt?$AAa?$AAt?$AAu?$AAs?$AAH?$AAa?$AAn?$AAd?$AAs?$AAh?$AAa@ 00023200     oal_usbdbgsermdd:usbser.obj
 0001:00012250       ??_C@_1EK@JMJPNNOH@?$AAu?$AAs?$AAb?$AAd?$AAb?$AAg?$AA?3?$AA?$CL?$AAS?$AAe?$AAn?$AAd?$AAC?$AAo?$AAn?$AAt?$AAr?$AAo?$AAl?$AAS?$AAt?$AAa?$AAt?$AAu?$AAs?$AAH?$AAa?$AAn?$AAd?$AAs?$AAh?$AAa@ 00023250     oal_usbdbgsermdd:usbser.obj
 0001:000122a0       ??_C@_1EK@PGNPJKME@?$AAu?$AAs?$AAb?$AAd?$AAb?$AAg?$AA?3?$AA?9?$AAR?$AAe?$AAc?$AAv?$AAC?$AAo?$AAn?$AAt?$AAr?$AAo?$AAl?$AAS?$AAt?$AAa?$AAt?$AAu?$AAs?$AAH?$AAa?$AAn?$AAd?$AAs?$AAh?$AAa@ 000232a0     oal_usbdbgsermdd:usbser.obj
 0001:000122f0       ??_C@_1EK@CFKFLHCF@?$AAu?$AAs?$AAb?$AAd?$AAb?$AAg?$AA?3?$AA?$CL?$AAR?$AAe?$AAc?$AAv?$AAC?$AAo?$AAn?$AAt?$AAr?$AAo?$AAl?$AAS?$AAt?$AAa?$AAt?$AAu?$AAs?$AAH?$AAa?$AAn?$AAd?$AAs?$AAh?$AAa@ 000232f0     oal_usbdbgsermdd:usbser.obj
 0001:00012340       ??_C@_1KO@NKOLJPDI@?$AAU?$AAs?$AAb?$AAD?$AAb?$AAg?$AA?3?$AAS?$AAe?$AAt?$AAu?$AAp?$AA?5?$AAr?$AAe?$AAq?$AAu?$AAe?$AAs?$AAt?$AA?5?$AA?$FL?$AAU?$AAS?$AAB?$AA_?$AAR?$AAE?$AAQ?$AAU?$AAE?$AAS@ 00023340     oal_usbdbgsermdd:usbser.obj
 0001:000123f0       ??_C@_1LM@IOIMEAIM@?$AAU?$AAs?$AAb?$AAD?$AAb?$AAg?$AA?3?$AAS?$AAe?$AAt?$AAu?$AAp?$AA?5?$AAr?$AAe?$AAq?$AAu?$AAe?$AAs?$AAt?$AA?5?$AA?$FL?$AAU?$AAS?$AAB?$AA_?$AAR?$AAE?$AAQ?$AAU?$AAE?$AAS@ 000233f0     oal_usbdbgsermdd:usbser.obj
 0001:000124b0       ??_C@_1FK@OCHICEMB@?$AAU?$AAs?$AAb?$AAD?$AAb?$AAg?$AA?3?$AA?5?$AAU?$AAs?$AAi?$AAn?$AAg?$AA?5?$AAd?$AAe?$AAf?$AAa?$AAu?$AAl?$AAt?$AA?5?$AAm?$AAa?$AAn?$AAu?$AAf?$AAa?$AAc?$AAt?$AAu?$AAr@ 000234b0     oal_usbdbgsermdd:usbser.obj
 0001:00012510       ??_C@_1EO@FJOJGFBF@?$AAU?$AAs?$AAb?$AAD?$AAb?$AAg?$AA?3?$AAU?$AAs?$AAi?$AAn?$AAg?$AA?5?$AAd?$AAe?$AAf?$AAa?$AAu?$AAl?$AAt?$AA?5?$AAp?$AAr?$AAo?$AAd?$AAu?$AAc?$AAt?$AA?5?$AAs?$AAt?$AAr@ 00023510     oal_usbdbgsermdd:usbser.obj
 0001:00012560       ??_C@_1IK@OGLDBMOB@?$AAU?$AAs?$AAb?$AAD?$AAb?$AAg?$AA?3?$AAU?$AAs?$AAi?$AAn?$AAg?$AA?5?$AAd?$AAe?$AAf?$AAa?$AAu?$AAl?$AAt?$AA?5?$AAi?$AAm?$AAp?$AAl?$AAe?$AAm?$AAe?$AAn?$AAt?$AAa?$AAt@ 00023560     oal_usbdbgsermdd:usbser.obj
 0001:000125f0       ??_C@_1FG@DNPHFPP@?$AAE?$AAR?$AAR?$AAO?$AAR?$AA?$CB?$AAU?$AAs?$AAb?$AAD?$AAb?$AAg?$AA?3?$AA?$CK?$AA?$CK?$AA?$CK?$AA?5?$AAU?$AAn?$AAk?$AAn?$AAo?$AAw?$AAn?$AA?5?$AAS?$AAT?$AAR?$AAI?$AAN?$AAG?$AA?5@ 000235f0     oal_usbdbgsermdd:usbser.obj
 0001:00012648       ??_C@_1KO@KHDHCKLC@?$AAU?$AAs?$AAb?$AAD?$AAb?$AAg?$AA?3?$AAS?$AAe?$AAt?$AAu?$AAp?$AA?5?$AAr?$AAe?$AAq?$AAu?$AAe?$AAs?$AAt?$AA?5?$AA?$FL?$AAU?$AAS?$AAB?$AA_?$AAR?$AAE?$AAQ?$AAU?$AAE?$AAS@ 00023648     oal_usbdbgsermdd:usbser.obj
 0001:000126f8       ??_C@_1GO@MOJPNABM@?$AAE?$AAR?$AAR?$AAO?$AAR?$AA?$CB?$AAU?$AAs?$AAb?$AAD?$AAb?$AAg?$AA?3?$AA?$CK?$AA?$CK?$AA?$CK?$AA?5?$AAU?$AAn?$AAk?$AAn?$AAo?$AAw?$AAn?$AA?5?$AAG?$AAE?$AAT?$AA_?$AAD?$AAE?$AAS@ 000236f8     oal_usbdbgsermdd:usbser.obj
 0001:00012768       ??_C@_1DM@PLFFFEOG@?$AAu?$AAs?$AAb?$AAd?$AAb?$AAg?$AA?3?$AA?5?$AA?9?$AAP?$AAr?$AAo?$AAc?$AAe?$AAs?$AAs?$AAS?$AAe?$AAt?$AAu?$AAp?$AAP?$AAa?$AAc?$AAk?$AAe?$AAt?$AA?$AN?$AA?6?$AA?$AA@ 00023768     oal_usbdbgsermdd:usbser.obj
 0001:000127a8       ??_C@_1EM@EKHEIPCB@?$AAW?$AAA?$AAR?$AAN?$AA?$CB?$AAu?$AAs?$AAb?$AAd?$AAb?$AAg?$AA?3?$AA?$CK?$AA?$CK?$AA?$CK?$AAU?$AAn?$AAk?$AAn?$AAo?$AAw?$AAn?$AA?5?$AAr?$AAe?$AAq?$AAu?$AAe?$AAs?$AAt?$AA?5?$AA0@ 000237a8     oal_usbdbgsermdd:usbser.obj
 0001:000127f8       ??_C@_1FO@DAIANKAD@?$AAu?$AAs?$AAb?$AAd?$AAb?$AAg?$AA?3?$AAR?$AAe?$AAc?$AAv?$AAd?$AA?4?$AA?5?$AAU?$AAS?$AAB?$AA_?$AAR?$AAE?$AAQ?$AAU?$AAE?$AAS?$AAT?$AA_?$AAS?$AAE?$AAT?$AA_?$AAC?$AAO@ 000237f8     oal_usbdbgsermdd:usbser.obj
 0001:00012858       ??_C@_1FC@EEMMNPNH@?$AAu?$AAs?$AAb?$AAd?$AAb?$AAg?$AA?3?$AAR?$AAe?$AAc?$AAv?$AAd?$AA?4?$AA?5?$AAU?$AAS?$AAB?$AA_?$AAR?$AAE?$AAQ?$AAU?$AAE?$AAS?$AAT?$AA_?$AAS?$AAE?$AAT?$AA_?$AAA?$AAD@ 00023858     oal_usbdbgsermdd:usbser.obj
 0001:000128b0       ??_C@_1EG@JCBDGIFO@?$AAW?$AAA?$AAR?$AAN?$AA?$CB?$AAu?$AAs?$AAb?$AAd?$AAb?$AAg?$AA?3?$AA?$CK?$AA?$CK?$AA?$CK?$AAR?$AAe?$AAq?$AAu?$AAe?$AAs?$AAt?$AAT?$AAy?$AAp?$AAe?$AA?$DN?$AA?$DN?$AA0?$AAx?$AA0?$AA2@ 000238b0     oal_usbdbgsermdd:usbser.obj
 0001:000128f8       ??_C@_1EG@JAOBPOOI@?$AAW?$AAA?$AAR?$AAN?$AA?$CB?$AAU?$AAs?$AAb?$AAD?$AAb?$AAg?$AA?3?$AA?$CK?$AA?$CK?$AA?$CK?$AAR?$AAe?$AAq?$AAu?$AAe?$AAs?$AAt?$AAT?$AAy?$AAp?$AAe?$AA?$DN?$AA?$DN?$AA0?$AAx?$AA0?$AA2@ 000238f8     oal_usbdbgsermdd:usbser.obj
 0001:00012940       ??_C@_1II@IIACOAJM@?$AAW?$AAA?$AAR?$AAN?$AA?$CB?$AAU?$AAs?$AAb?$AAD?$AAb?$AAg?$AA?3?$AAR?$AAe?$AAq?$AAu?$AAe?$AAs?$AAt?$AAT?$AAy?$AAp?$AAe?$AA?$DN?$AA?$DN?$AA0?$AAx?$AA?$CF?$AAd?$AA?0?$AA?5?$AAU@ 00023940     oal_usbdbgsermdd:usbser.obj
 0001:000129c8       ??_C@_1GG@ELMCIADF@?$AAU?$AAs?$AAb?$AAD?$AAb?$AAg?$AA?3?$AAS?$AAe?$AAt?$AAu?$AAp?$AA?5?$AAr?$AAe?$AAq?$AAu?$AAe?$AAs?$AAt?$AA?5?$AA?$FL?$AAS?$AAE?$AAT?$AA_?$AAC?$AAO?$AAN?$AAT?$AAR?$AAO@ 000239c8     oal_usbdbgsermdd:usbser.obj
 0001:00012a30       ??_C@_1JK@KEHFADFH@?$AAE?$AAR?$AAR?$AAO?$AAR?$AA?$CB?$AAU?$AAs?$AAb?$AAD?$AAb?$AAg?$AA?3?$AAU?$AAn?$AAr?$AAe?$AAc?$AAo?$AAg?$AAn?$AAi?$AAz?$AAe?$AAd?$AA?5?$AAS?$AAe?$AAt?$AAu?$AAp?$AA?5@ 00023a30     oal_usbdbgsermdd:usbser.obj
 0001:00012acc       ??_C@_1DM@HKFMFKK@?$AAu?$AAs?$AAb?$AAd?$AAb?$AAg?$AA?3?$AA?5?$AA?$CL?$AAP?$AAr?$AAo?$AAc?$AAe?$AAs?$AAs?$AAS?$AAe?$AAt?$AAu?$AAp?$AAP?$AAa?$AAc?$AAk?$AAe?$AAt?$AA?$AN?$AA?6?$AA?$AA@ 00023acc     oal_usbdbgsermdd:usbser.obj
 0001:00012b08       ??_C@_1II@HLFCHCEL@?$AAE?$AAR?$AAR?$AAO?$AAR?$AA?$CB?$AAu?$AAs?$AAb?$AAd?$AAb?$AAg?$AA?3?$AA?5?$AAF?$AAa?$AAi?$AAl?$AAe?$AAd?$AA?5?$AAt?$AAo?$AA?5?$AAr?$AAe?$AAt?$AAr?$AAi?$AAe?$AAv?$AAe@ 00023b08     oal_usbdbgsermdd:usbser.obj
 0001:00012b90       ??_C@_1FA@HOKHFHCM@?$AAu?$AAs?$AAb?$AAd?$AAb?$AAg?$AA?3?$AA?9?$AAU?$AAs?$AAb?$AAS?$AAe?$AAr?$AAi?$AAa?$AAl?$AA_?$AAE?$AAv?$AAe?$AAn?$AAt?$AAH?$AAa?$AAn?$AAd?$AAl?$AAe?$AAr?$AA?4?$AAm@ 00023b90     oal_usbdbgsermdd:usbser.obj
 0001:00012be0       ??_C@_1EO@LAAPGPJE@?$AAE?$AAR?$AAR?$AAO?$AAR?$AA?$CB?$AAU?$AAs?$AAb?$AAD?$AAb?$AAg?$AA?3?$AA?5?$AAU?$AAs?$AAb?$AAS?$AAe?$AAr?$AAi?$AAa?$AAl?$AA_?$AAE?$AAv?$AAe?$AAn?$AAt?$AAH?$AAa?$AAn@ 00023be0     oal_usbdbgsermdd:usbser.obj
 0001:00012c30       ??_C@_1EC@MBJNKCAG@?$AAu?$AAs?$AAb?$AAd?$AAb?$AAg?$AA?3?$AA?$CL?$AAU?$AAs?$AAb?$AAS?$AAe?$AAr?$AAi?$AAa?$AAl?$AA_?$AAE?$AAv?$AAe?$AAn?$AAt?$AAH?$AAa?$AAn?$AAd?$AAl?$AAe?$AAr?$AA?$AN?$AA?6@ 00023c30     oal_usbdbgsermdd:usbser.obj
 0001:00012c74       ??_C@_1DM@DJEMBLJL@?$AAu?$AAs?$AAb?$AAd?$AAb?$AAg?$AA?3?$AA?9?$AAU?$AAs?$AAb?$AAS?$AAe?$AAr?$AAi?$AAa?$AAl?$AA_?$AAR?$AAe?$AAc?$AAv?$AAD?$AAa?$AAt?$AAa?$AA?4?$AA?$AN?$AA?6?$AA?$AA@ 00023c74     oal_usbdbgsermdd:usbser.obj
 0001:00012cb0       ??_C@_1IE@FIACGLLJ@?$AAE?$AAR?$AAR?$AAO?$AAR?$AA?$CB?$AAu?$AAs?$AAb?$AAd?$AAb?$AAg?$AA?3?$AAU?$AAs?$AAb?$AAS?$AAe?$AAr?$AAi?$AAa?$AAl?$AA_?$AAR?$AAe?$AAc?$AAv?$AAD?$AAa?$AAt?$AAa?$AA?3@ 00023cb0     oal_usbdbgsermdd:usbser.obj
 0001:00012d34       ??_C@_1DM@OCIIEELA@?$AAu?$AAs?$AAb?$AAd?$AAb?$AAg?$AA?3?$AA?$CL?$AAU?$AAs?$AAb?$AAS?$AAe?$AAr?$AAi?$AAa?$AAl?$AA_?$AAR?$AAe?$AAc?$AAv?$AAD?$AAa?$AAt?$AAa?$AA?4?$AA?$AN?$AA?6?$AA?$AA@ 00023d34     oal_usbdbgsermdd:usbser.obj
 0001:00012d70       ??_C@_1IK@MHLPJLEP@?$AAE?$AAR?$AAR?$AAO?$AAR?$AA?$CB?$AAu?$AAs?$AAb?$AAd?$AAb?$AAg?$AA?3?$AAI?$AAn?$AAc?$AAo?$AAr?$AAr?$AAe?$AAc?$AAt?$AA?5?$AAU?$AAS?$AAB?$AAD?$AAB?$AAG?$AAP?$AAD?$AAD@ 00023d70     oal_usbdbgsermdd:usbser.obj
 0001:00012e00       ??_C@_1EM@PFDBNAOK@?$AAE?$AAR?$AAR?$AAO?$AAR?$AA?$CB?$AAu?$AAs?$AAb?$AAd?$AAb?$AAg?$AA?3?$AAU?$AAs?$AAb?$AAD?$AAb?$AAg?$AAP?$AAd?$AAd?$AA_?$AAI?$AAn?$AAi?$AAt?$AA?5?$AAf?$AAa?$AAi?$AAl@ 00023e00     oal_usbdbgsermdd:usbser.obj
 0001:00012e4c       ??_C@_1DK@OFBFGJAC@?$AAu?$AAs?$AAb?$AAd?$AAb?$AAg?$AA?3?$AA?9?$AAS?$AAe?$AAn?$AAd?$AAR?$AAe?$AAc?$AAv?$AAD?$AAa?$AAt?$AAa?$AA?4?$AA?5?$AAe?$AAp?$AA?$CF?$AAd?$AA?$AN?$AA?6?$AA?$AA@ 00023e4c     oal_usbdbgsermdd:usbser.obj
 0001:00012e88       ??_C@_1JC@PINGABHA@?$AAE?$AAR?$AAR?$AAO?$AAR?$AA?$CB?$AAU?$AAs?$AAb?$AAD?$AAb?$AAg?$AA?3?$AA?5?$AAe?$AAp?$AA?$CF?$AAd?$AA?5?$AAd?$AAi?$AAr?$AA?$DN?$AA?$CF?$AAd?$AA?5?$AAt?$AAi?$AAm?$AAe?$AAd?$AA?5@ 00023e88     oal_usbdbgsermdd:usbser.obj
 0001:00012f1c       ??_C@_1DK@BJOFPIEO@?$AAu?$AAs?$AAb?$AAd?$AAb?$AAg?$AA?3?$AA?$CL?$AAS?$AAe?$AAn?$AAd?$AAR?$AAe?$AAc?$AAv?$AAD?$AAa?$AAt?$AAa?$AA?4?$AA?5?$AAe?$AAp?$AA?$CF?$AAd?$AA?$AN?$AA?6?$AA?$AA@ 00023f1c     oal_usbdbgsermdd:usbser.obj
 0001:00013018       ??_C@_1EO@LLJEOBNI@?$AAR?$AAN?$AAd?$AAi?$AAs?$AA?3?$AA?3?$AA?5?$AAO?$AAI?$AAD?$AA?$FL?$AA?$CF?$AAx?$AA?$FN?$AA?5?$AAn?$AAo?$AAt?$AA?5?$AAy?$AAe?$AAt?$AA?5?$AAi?$AAm?$AAp?$AAl?$AAe?$AAm?$AAe?$AAn@ 00024018     oal_usbdbgrndismdd:rndismin.obj
 0001:00013068       ??_C@_1FI@GBAKEDI@?$AAR?$AAN?$AAd?$AAi?$AAs?$AA?3?$AA?3?$AA?5?$AAN?$AAe?$AAw?$AA?5?$AAf?$AAi?$AAl?$AAt?$AAe?$AAr?$AA?5?$AAs?$AAe?$AAt?$AA?3?$AA?5?$AA?$FL?$AA0?$AAx?$AA?$CF?$AAx?$AA?$FN?$AA?5?$AA?9@ 00024068     oal_usbdbgrndismdd:rndismin.obj
 0001:000130c0       ??_C@_1IA@ICOPJIHL@?$AAR?$AAN?$AAd?$AAi?$AAs?$AA?3?$AA?3?$AA?5?$AAO?$AAu?$AAt?$AAg?$AAo?$AAi?$AAn?$AAg?$AA?5?$AAp?$AAk?$AAt?$AA?5?$AAi?$AAs?$AA?5?$AAb?$AAi?$AAg?$AAg?$AAe?$AAr?$AA?5?$AAt@ 000240c0     oal_usbdbgrndismdd:rndismin.obj
 0001:00013140       ??_C@_1GO@FIKPACAE@?$AAR?$AAN?$AAd?$AAi?$AAs?$AA?3?$AA?3?$AA?5?$AAE?$AAR?$AAR?$AAO?$AAR?$AA?$CB?$AA?5?$AAO?$AAu?$AAt?$AAg?$AAo?$AAi?$AAn?$AAg?$AA?5?$AAp?$AAk?$AAt?$AA?5?$AAi?$AAs?$AA?5?$AAt@ 00024140     oal_usbdbgrndismdd:rndismin.obj
 0001:000131b0       ??_C@_1DG@DPDLHDA@?$AAR?$AAN?$AAd?$AAi?$AAs?$AA?3?$AA?3?$AA?5?$AAS?$AAe?$AAn?$AAd?$AAi?$AAn?$AAg?$AA?5?$AAM?$AAs?$AAg?$AA?5?$AA?$FL?$AA?$CF?$AAs?$AA?$FN?$AA?$AN?$AA?6?$AA?$AA@ 000241b0     oal_usbdbgrndismdd:rndismin.obj
 0001:000131e8       ??_C@_1BC@CMJBNADL@?$AAU?$AAN?$AAK?$AAN?$AAO?$AAW?$AAN?$AA?$CB?$AA?$AA@ 000241e8     oal_usbdbgrndismdd:rndismin.obj
 0001:000131fc       ??_C@_1CA@NMLMHJBP@?$AAK?$AAE?$AAE?$AAP?$AAA?$AAL?$AAI?$AAV?$AAE?$AA?9?$AAC?$AAM?$AAP?$AAL?$AAT?$AA?$AA@ 000241fc     oal_usbdbgrndismdd:rndismin.obj
 0001:0001321c       ??_C@_1BI@FKAJDLHF@?$AAR?$AAE?$AAS?$AAE?$AAT?$AA?9?$AAC?$AAM?$AAP?$AAL?$AAT?$AA?$AA@ 0002421c     oal_usbdbgrndismdd:rndismin.obj
 0001:00013234       ??_C@_1BE@PHFGPHFI@?$AAS?$AAE?$AAT?$AA?9?$AAC?$AAM?$AAP?$AAL?$AAT?$AA?$AA@ 00024234     oal_usbdbgrndismdd:rndismin.obj
 0001:00013248       ??_C@_1BI@JMCPKMJ@?$AAQ?$AAU?$AAE?$AAR?$AAY?$AA?9?$AAC?$AAM?$AAP?$AAL?$AAT?$AA?$AA@ 00024248     oal_usbdbgrndismdd:rndismin.obj
 0001:00013260       ??_C@_1BG@HOOBGILA@?$AAI?$AAN?$AAI?$AAT?$AA?9?$AAC?$AAM?$AAP?$AAL?$AAT?$AA?$AA@ 00024260     oal_usbdbgrndismdd:rndismin.obj
 0001:00013278       ??_C@_1MK@KFLLFAAK@?$AAR?$AAN?$AAd?$AAi?$AAs?$AA?3?$AA?3?$AA?5?$AAS?$AAe?$AAn?$AAd?$AAR?$AAn?$AAd?$AAi?$AAs?$AAM?$AAe?$AAs?$AAs?$AAa?$AAg?$AAe?$AA?3?$AA?5?$AAR?$AAE?$AAM?$AAO?$AAT?$AAE@ 00024278     oal_usbdbgrndismdd:rndismin.obj
 0001:00013348       ??_C@_1HG@EOOHAPN@?$AAE?$AAR?$AAR?$AAO?$AAR?$AA?3?$AA?5?$AAS?$AAe?$AAn?$AAd?$AAR?$AAn?$AAd?$AAi?$AAs?$AAM?$AAe?$AAs?$AAs?$AAa?$AAg?$AAe?$AA?3?$AA?3?$AA?5?$AAI?$AAn?$AAc?$AAo?$AAr?$AAr@ 00024348     oal_usbdbgrndismdd:rndismin.obj
 0001:000133c0       ??_C@_1HE@KDENLFIG@?$AAI?$AAN?$AAF?$AAO?$AA?3?$AA?5?$AAR?$AAN?$AAd?$AAi?$AAs?$AA?3?$AA?3?$AA?5?$AAN?$AAo?$AAt?$AA?5?$AAi?$AAn?$AAi?$AAt?$AAi?$AAa?$AAl?$AAi?$AAz?$AAe?$AAd?$AA?4?$AA?5?$AAA@ 000243c0     oal_usbdbgrndismdd:rndismin.obj
 0001:00013438       ??_C@_1EA@IINCJPEC@?$AAR?$AAN?$AAd?$AAi?$AAs?$AA?3?$AA?3?$AA?5?$AAi?$AAn?$AAi?$AAt?$AAi?$AAa?$AAl?$AAi?$AAz?$AAa?$AAt?$AAi?$AAo?$AAn?$AA?3?$AA?5?$AAF?$AAa?$AAi?$AAl?$AA?$CB?$AA?$AN?$AA?6?$AA?$AA@ 00024438     oal_usbdbgrndismdd:rndismin.obj
 0001:00013478       ??_C@_1EE@GAIGHNKP@?$AAR?$AAN?$AAd?$AAi?$AAs?$AA?3?$AA?3?$AA?5?$AAi?$AAn?$AAi?$AAt?$AAi?$AAa?$AAl?$AAi?$AAz?$AAa?$AAt?$AAi?$AAo?$AAn?$AA?3?$AA?5?$AAS?$AAu?$AAc?$AAc?$AAe?$AAs?$AAs?$AA?$AN@ 00024478     oal_usbdbgrndismdd:rndismin.obj
 0001:000134c0       ??_C@_1EO@DEHOGKPH@?$AAU?$AAs?$AAb?$AAD?$AAb?$AAg?$AAR?$AAn?$AAd?$AAi?$AAs?$AA?3?$AA?3?$AA?5?$AAW?$AAa?$AAi?$AAt?$AAi?$AAn?$AAg?$AA?5?$AAt?$AAo?$AA?5?$AAc?$AAo?$AAn?$AAn?$AAe?$AAc?$AAt@ 000244c0     oal_usbdbgrndismdd:rndismin.obj
 0001:00013510       ??_C@_1GE@KJKJEDFN@?$AAE?$AAR?$AAR?$AAO?$AAR?$AA?3?$AA?5?$AAR?$AAN?$AAd?$AAi?$AAs?$AA?3?$AA?3?$AA?5?$AAU?$AAs?$AAb?$AAR?$AAn?$AAd?$AAi?$AAs?$AA_?$AAI?$AAn?$AAi?$AAt?$AA?5?$AAf?$AAa?$AAi@ 00024510     oal_usbdbgrndismdd:rndismin.obj
 0001:00013578       ??_C@_1FM@LEFKPIKI@?$AAR?$AAN?$AAd?$AAi?$AAs?$AA?3?$AA?3?$AA?5?$AAI?$AAn?$AAi?$AAt?$AA?3?$AA?5?$AAM?$AAA?$AAC?$AA?5?$AAa?$AAd?$AAd?$AAr?$AAe?$AAs?$AAs?$AA?3?$AA?$CF?$AAx?$AA?9?$AA?$CF?$AAx?$AA?9@ 00024578     oal_usbdbgrndismdd:rndismin.obj
 0001:000135d8       ??_C@_1HA@MEDGCFNO@?$AAE?$AAR?$AAR?$AAO?$AAR?$AA?3?$AA?5?$AAR?$AAN?$AAd?$AAi?$AAs?$AA?3?$AA?3?$AA?5?$AAE?$AAm?$AAp?$AAt?$AAy?$AA?5?$AAM?$AAA?$AAC?$AA?5?$AAa?$AAd?$AAd?$AAr?$AAe?$AAs?$AAs@ 000245d8     oal_usbdbgrndismdd:rndismin.obj
 0001:00013648       ??_C@_1DM@FABIDKFF@?$AA?9?$AAR?$AAn?$AAd?$AAi?$AAs?$AA_?$AAS?$AAe?$AAn?$AAd?$AAF?$AAr?$AAa?$AAm?$AAe?$AA?3?$AA?5?$AAr?$AAe?$AAt?$AAV?$AAa?$AAl?$AA?$DN?$AA?$CF?$AAd?$AA?$AN?$AA?6?$AA?$AA@ 00024648     oal_usbdbgrndismdd:rndismin.obj
 0001:00013684       ??_C@_1DI@HBMKOBCD@?$AA?$CL?$AAR?$AAn?$AAd?$AAi?$AAs?$AA_?$AAS?$AAe?$AAn?$AAd?$AAF?$AAr?$AAa?$AAm?$AAe?$AA?3?$AA?5?$AAs?$AAi?$AAz?$AAe?$AA?$DN?$AA?$CF?$AAd?$AA?$AN?$AA?6?$AA?$AA@ 00024684     oal_usbdbgrndismdd:rndismin.obj
 0001:000136c0       ??_C@_1EG@PMNJEFCO@?$AA?9?$AAR?$AAn?$AAd?$AAi?$AAs?$AA_?$AAR?$AAe?$AAc?$AAv?$AAF?$AAr?$AAa?$AAm?$AAe?$AA?3?$AA?5?$AAc?$AAb?$AAR?$AAe?$AAc?$AAv?$AAd?$AAD?$AAa?$AAt?$AAa?$AA?$DN?$AA?$CF?$AAd@ 000246c0     oal_usbdbgrndismdd:rndismin.obj
 0001:00013708       ??_C@_1GO@LCPOHNPF@?$AAE?$AAR?$AAR?$AAO?$AAR?$AA?3?$AA?5?$AAR?$AAN?$AAd?$AAi?$AAs?$AA?3?$AA?3?$AA?5?$AAR?$AAe?$AAc?$AAv?$AAF?$AAr?$AAa?$AAm?$AAe?$AA?3?$AA?5?$AAc?$AAb?$AAR?$AAe?$AAc?$AAv@ 00024708     oal_usbdbgrndismdd:rndismin.obj
 0001:00013778       ??_C@_1DO@LFJGDMBL@?$AA?$CL?$AAR?$AAn?$AAd?$AAi?$AAs?$AA_?$AAR?$AAe?$AAc?$AAv?$AAF?$AAr?$AAa?$AAm?$AAe?$AA?3?$AA?5?$AAb?$AAu?$AAf?$AAS?$AAi?$AAz?$AAe?$AA?$DN?$AA?$CF?$AAd?$AA?$AN?$AA?6?$AA?$AA@ 00024778     oal_usbdbgrndismdd:rndismin.obj
 0001:000137b8       ??_C@_1GM@IMCAEPLE@?$AAU?$AAS?$AAB?$AAD?$AAB?$AAG?$AAR?$AAN?$AAD?$AAI?$AAS?$AA?3?$AA?3?$AA?5?$AAU?$AAn?$AAk?$AAn?$AAo?$AAw?$AAn?$AA?5?$AAR?$AAN?$AAD?$AAI?$AAS?$AA?5?$AAm?$AAs?$AAg?$AA?0@ 000247b8     oal_usbdbgrndismdd:rndismin.obj
 0001:00013828       ??_C@_1FO@LOKANOGL@?$AAR?$AAN?$AAd?$AAi?$AAs?$AA?3?$AA?3?$AA?5?$AAr?$AAc?$AAv?$AA?5?$AAR?$AAE?$AAM?$AAO?$AAT?$AAE?$AA_?$AAN?$AAD?$AAI?$AAS?$AA_?$AAR?$AAE?$AAS?$AAE?$AAT?$AA_?$AAM?$AAS@ 00024828     oal_usbdbgrndismdd:rndismin.obj
 0001:00013888       ??_C@_1FO@LCGAJCLO@?$AAR?$AAN?$AAd?$AAi?$AAs?$AA?3?$AA?3?$AA?5?$AAr?$AAe?$AAc?$AAv?$AA?5?$AAR?$AAE?$AAM?$AAO?$AAT?$AAE?$AA_?$AAN?$AAD?$AAI?$AAS?$AA_?$AAH?$AAA?$AAL?$AAT?$AA_?$AAM?$AAS@ 00024888     oal_usbdbgrndismdd:rndismin.obj
 0001:000138e8       ??_C@_1EK@ECMJGLNN@?$AAR?$AAN?$AAd?$AAi?$AAs?$AA?3?$AA?3?$AA?5?$AAR?$AAE?$AAM?$AAO?$AAT?$AAE?$AA_?$AAN?$AAD?$AAI?$AAS?$AA_?$AAK?$AAE?$AAE?$AAP?$AAA?$AAL?$AAI?$AAV?$AAE?$AA_?$AAM?$AAS@ 000248e8     oal_usbdbgrndismdd:rndismin.obj
 0001:00013938       ??_C@_1GA@ELHAAJBG@?$AAR?$AAN?$AAd?$AAi?$AAs?$AA?3?$AA?3?$AA?5?$AAQ?$AAu?$AAe?$AAr?$AAy?$AA?3?$AA?5?$AAI?$AAD?$AA?$FL?$AA0?$AAx?$AA?$CF?$AAx?$AA?$FN?$AA?3?$AAO?$AAI?$AAD?$AA?$FL?$AA0?$AAx?$AA?$CF?$AAx@ 00024938     oal_usbdbgrndismdd:rndismin.obj
 0001:00013998       ??_C@_1HA@IIGNPPEL@?$AAR?$AAN?$AAd?$AAi?$AAs?$AA?3?$AA?3?$AA?5?$AAS?$AAe?$AAn?$AAd?$AA?5?$AAI?$AAn?$AAi?$AAt?$AAi?$AAa?$AAl?$AAi?$AAz?$AAe?$AAC?$AAo?$AAm?$AAp?$AAl?$AAe?$AAt?$AAe?$AA?5@ 00024998     oal_usbdbgrndismdd:rndismin.obj
 0001:00013a08       ??_C@_1FM@HBPDHFOB@?$AAR?$AAN?$AAd?$AAi?$AAs?$AAM?$AAi?$AAn?$AAi?$AA?5?$AAE?$AAr?$AAr?$AA?$CB?$AA?$CB?$AA?5?$AAu?$AAn?$AAs?$AAu?$AAp?$AAp?$AAo?$AAr?$AAt?$AAe?$AAd?$AA?5?$AAR?$AAN?$AAD?$AAI@ 00024a08     oal_usbdbgrndismdd:rndismin.obj
 0001:00013a68       ??_C@_1GC@CJIPHNOB@?$AAR?$AAN?$AAd?$AAi?$AAs?$AA?3?$AA?3?$AA?5?$AAR?$AAe?$AAq?$AAI?$AAD?$AA?$FL?$AA0?$AAx?$AA?$CF?$AAx?$AA?$FN?$AA?5?$AA?9?$AA?5?$AAV?$AAe?$AAr?$AA?$FL?$AA?$CF?$AAd?$AA?9?$AA?$CF?$AAd?$AA?$FN@ 00024a68     oal_usbdbgrndismdd:rndismin.obj
 0001:00013ad0       ??_C@_1IO@GMFFIAPN@?$AAE?$AAR?$AAR?$AAO?$AAR?$AA?3?$AA?5?$AAR?$AAN?$AAd?$AAi?$AAs?$AA?3?$AA?3?$AA?5?$AAC?$AAu?$AAr?$AAr?$AAe?$AAn?$AAt?$AA?5?$AAc?$AAo?$AAd?$AAe?$AAp?$AAa?$AAt?$AAh?$AA?5@ 00024ad0     oal_usbdbgrndismdd:rndismin.obj
 0001:00013b60       ??_C@_1EO@FIIDCAPI@?$AAR?$AAN?$AAd?$AAi?$AAs?$AA?3?$AA?3?$AA?5?$AAD?$AAr?$AAo?$AAp?$AAp?$AAi?$AAn?$AAg?$AA?5?$AAR?$AAn?$AAd?$AAi?$AAs?$AAM?$AAe?$AAs?$AAs?$AAa?$AAg?$AAe?$AAT?$AAy?$AAp@ 00024b60     oal_usbdbgrndismdd:rndismin.obj
 0001:00013bb0       ??_C@_1GK@PFPJBJOB@?$AAR?$AAN?$AAd?$AAi?$AAs?$AA?3?$AA?3?$AA?5?$AAP?$AAr?$AAo?$AAc?$AAe?$AAs?$AAs?$AAi?$AAn?$AAg?$AA?5?$AAR?$AAn?$AAd?$AAi?$AAs?$AAM?$AAe?$AAs?$AAs?$AAa?$AAg?$AAe?$AA?5@ 00024bb0     oal_usbdbgrndismdd:rndismin.obj
 0001:00013c1c       ??_C@_1CA@PJGLJOCC@?$AAR?$AAN?$AAD?$AAI?$AAS?$AA_?$AAK?$AAE?$AAE?$AAP?$AAA?$AAL?$AAI?$AAV?$AAE?$AA?$AA@ 00024c1c     oal_usbdbgrndismdd:rndismin.obj
 0001:00013c3c       ??_C@_1BO@PAGDIAJL@?$AAR?$AAN?$AAD?$AAI?$AAS?$AA_?$AAI?$AAN?$AAD?$AAI?$AAC?$AAA?$AAT?$AAE?$AA?$AA@ 00024c3c     oal_usbdbgrndismdd:rndismin.obj
 0001:00013c5c       ??_C@_1BK@JKMAFAPD@?$AAR?$AAN?$AAD?$AAI?$AAS?$AA_?$AAP?$AAA?$AAC?$AAK?$AAE?$AAT?$AA?$AA@ 00024c5c     oal_usbdbgrndismdd:rndismin.obj
 0001:00013c78       ??_C@_1BI@BMFLPMFI@?$AAR?$AAN?$AAD?$AAI?$AAS?$AA_?$AAR?$AAE?$AAS?$AAE?$AAT?$AA?$AA@ 00024c78     oal_usbdbgrndismdd:rndismin.obj
 0001:00013c90       ??_C@_1BE@JKHDGLNO@?$AAR?$AAN?$AAD?$AAI?$AAS?$AA_?$AAS?$AAE?$AAT?$AA?$AA@ 00024c90     oal_usbdbgrndismdd:rndismin.obj
 0001:00013ca4       ??_C@_1BI@BKAGHNBC@?$AAR?$AAN?$AAD?$AAI?$AAS?$AA_?$AAQ?$AAU?$AAE?$AAR?$AAY?$AA?$AA@ 00024ca4     oal_usbdbgrndismdd:rndismin.obj
 0001:00013cbc       ??_C@_1BG@DFDFKGNE@?$AAR?$AAN?$AAD?$AAI?$AAS?$AA_?$AAH?$AAA?$AAL?$AAT?$AA?$AA@ 00024cbc     oal_usbdbgrndismdd:rndismin.obj
 0001:00013cd4       ??_C@_1CC@NEOBIJCH@?$AAR?$AAN?$AAD?$AAI?$AAS?$AA_?$AAI?$AAN?$AAI?$AAT?$AAI?$AAA?$AAL?$AAI?$AAZ?$AAE?$AA?$AA@ 00024cd4     oal_usbdbgrndismdd:rndismin.obj
 0001:00013cf8       ??_C@_1HG@OMNJDLDL@?$AAE?$AAR?$AAR?$AAO?$AAR?$AA?3?$AAu?$AAs?$AAb?$AAd?$AAb?$AAg?$AA?3?$AAR?$AAE?$AAM?$AAO?$AAT?$AAE?$AA_?$AAN?$AAD?$AAI?$AAS?$AA_?$AAP?$AAA?$AAC?$AAK?$AAE?$AAT?$AA_@ 00024cf8     oal_usbdbgrndismdd:rndismin.obj
 0001:00014050       ??_C@_1CC@JPENPCAM@?$AA0?$AA1?$AA2?$AA3?$AA4?$AA5?$AA6?$AA7?$AA8?$AA9?$AAA?$AAB?$AAC?$AAD?$AAE?$AAF?$AA?$AA@ 00025050     oal_usbdbgrndismdd:usbrndis.obj
 0001:00014078       ??_C@_1KM@MJOEKGOG@?$AAU?$AAs?$AAb?$AAD?$AAb?$AAg?$AA?3?$AAG?$AAE?$AAT?$AA_?$AAD?$AAE?$AAS?$AAC?$AAR?$AAI?$AAP?$AAT?$AAO?$AAR?$AA?5?$AAr?$AAe?$AAq?$AAu?$AAe?$AAs?$AAt?$AA?3?$AA0?$AAx@ 00025078     oal_usbdbgrndismdd:usbrndis.obj
 0001:00014128       ??_C@_1FO@IGJDCKKF@?$AAu?$AAs?$AAb?$AAd?$AAb?$AAg?$AA?3?$AAS?$AAe?$AAn?$AAt?$AA?5?$AAR?$AAN?$AAD?$AAI?$AAS?$AA?5?$AAM?$AAe?$AAs?$AAs?$AAa?$AAg?$AAe?$AA?5?$AAo?$AAn?$AA?5?$AAE?$AAP?$AA0@ 00025128     oal_usbdbgrndismdd:usbrndis.obj
 0001:00014188       ??_C@_1GG@DMEFOKLB@?$AAU?$AAs?$AAb?$AAD?$AAb?$AAg?$AA?3?$AAS?$AAe?$AAt?$AAu?$AAp?$AA?5?$AAr?$AAe?$AAq?$AAu?$AAe?$AAs?$AAt?$AA?5?$AA?$FL?$AAS?$AAE?$AAN?$AAD?$AA_?$AAE?$AAN?$AAC?$AAA?$AAP@ 00025188     oal_usbdbgrndismdd:usbrndis.obj
 0001:000141f0       ??_C@_1GG@GOFFFBBF@?$AAU?$AAs?$AAb?$AAD?$AAb?$AAg?$AA?3?$AAS?$AAe?$AAt?$AAu?$AAp?$AA?5?$AAr?$AAe?$AAq?$AAu?$AAe?$AAs?$AAt?$AA?5?$AA?$FL?$AAG?$AAE?$AAT?$AA_?$AAE?$AAN?$AAC?$AAA?$AAP?$AAS@ 000251f0     oal_usbdbgrndismdd:usbrndis.obj
 0001:00014258       ??_C@_1EO@LEEDCEPH@?$AAu?$AAs?$AAb?$AAd?$AAb?$AAg?$AA?3?$AA?9?$AAU?$AAs?$AAb?$AAR?$AAn?$AAd?$AAi?$AAs?$AA_?$AAE?$AAv?$AAe?$AAn?$AAt?$AAH?$AAa?$AAn?$AAd?$AAl?$AAe?$AAr?$AA?4?$AAm?$AAs@ 00025258     oal_usbdbgrndismdd:usbrndis.obj
 0001:000142a8       ??_C@_1EK@HBDCLJFE@?$AAE?$AAR?$AAR?$AAO?$AAR?$AA?$CB?$AAu?$AAs?$AAb?$AAd?$AAb?$AAg?$AA?3?$AAU?$AAs?$AAb?$AAR?$AAn?$AAd?$AAi?$AAs?$AA_?$AAE?$AAv?$AAe?$AAn?$AAt?$AAH?$AAa?$AAn?$AAd?$AAl@ 000252a8     oal_usbdbgrndismdd:usbrndis.obj
 0001:000142f8       ??_C@_1EA@GJNPMCCB@?$AAu?$AAs?$AAb?$AAd?$AAb?$AAg?$AA?3?$AA?$CL?$AAU?$AAs?$AAb?$AAR?$AAn?$AAd?$AAi?$AAs?$AA_?$AAE?$AAv?$AAe?$AAn?$AAt?$AAH?$AAa?$AAn?$AAd?$AAl?$AAe?$AAr?$AA?$AN?$AA?6?$AA?$AA@ 000252f8     oal_usbdbgrndismdd:usbrndis.obj
 0001:00014338       ??_C@_1DK@KHNHBNCB@?$AAu?$AAs?$AAb?$AAd?$AAb?$AAg?$AA?3?$AA?9?$AAU?$AAs?$AAb?$AAR?$AAn?$AAd?$AAi?$AAs?$AA_?$AAR?$AAe?$AAc?$AAv?$AAD?$AAa?$AAt?$AAa?$AA?4?$AA?$AN?$AA?6?$AA?$AA@ 00025338     oal_usbdbgrndismdd:usbrndis.obj
 0001:00014374       ??_C@_1DK@FLCHIMGN@?$AAu?$AAs?$AAb?$AAd?$AAb?$AAg?$AA?3?$AA?$CL?$AAU?$AAs?$AAb?$AAR?$AAn?$AAd?$AAi?$AAs?$AA_?$AAR?$AAe?$AAc?$AAv?$AAD?$AAa?$AAt?$AAa?$AA?4?$AA?$AN?$AA?6?$AA?$AA@ 00025374     oal_usbdbgrndismdd:usbrndis.obj
 0001:000143b0       ??_C@_1EA@JLPAKBOH@?$AAu?$AAs?$AAb?$AAd?$AAb?$AAg?$AA?3?$AA?9?$AAU?$AAs?$AAb?$AAR?$AAn?$AAd?$AAi?$AAs?$AA_?$AAS?$AAe?$AAn?$AAd?$AAM?$AAe?$AAs?$AAs?$AAa?$AAg?$AAe?$AA?4?$AA?$AN?$AA?6?$AA?$AA@ 000253b0     oal_usbdbgrndismdd:usbrndis.obj
 0001:000143f0       ??_C@_1JA@NHNJFNAC@?$AAU?$AAs?$AAb?$AAD?$AAb?$AAg?$AA?3?$AAQ?$AAu?$AAe?$AAu?$AAe?$AAi?$AAn?$AAg?$AA?5?$AAR?$AAN?$AAD?$AAI?$AAS?$AA?5?$AAM?$AAs?$AAg?$AA?5?$AA?$FL?$AA?$CF?$AAd?$AA?5?$AAb?$AAy@ 000253f0     oal_usbdbgrndismdd:usbrndis.obj
 0001:00014480       ??_C@_1EA@DFLEPJED@?$AAu?$AAs?$AAb?$AAd?$AAb?$AAg?$AA?3?$AA?$CL?$AAU?$AAs?$AAb?$AAR?$AAn?$AAd?$AAi?$AAs?$AA_?$AAS?$AAe?$AAn?$AAd?$AAM?$AAe?$AAs?$AAs?$AAa?$AAg?$AAe?$AA?4?$AA?$AN?$AA?6?$AA?$AA@ 00025480     oal_usbdbgrndismdd:usbrndis.obj
 0001:000146c0       ??_C@_1EO@KLJGPEDP@?$AAu?$AAs?$AAb?$AAp?$AAd?$AAd?$AA?3?$AAD?$AAe?$AAv?$AAi?$AAc?$AAe?$AA?5?$AAe?$AAn?$AAu?$AAm?$AAe?$AAr?$AAa?$AAt?$AAi?$AAo?$AAn?$AA?5?$AAc?$AAo?$AAm?$AAp?$AAl?$AAe@ 000256c0     s3c6410_usbdbgpdd:usbdbgpdd.obj
 0001:00014710       ??_C@_1DG@FAMNIPMC@?$AAu?$AAs?$AAb?$AAp?$AAd?$AAd?$AA?3?$AA?5?$AAR?$AAe?$AAs?$AAu?$AAm?$AAe?$AA?5?$AAd?$AAe?$AAt?$AAe?$AAc?$AAt?$AAe?$AAd?$AA?4?$AA?$AN?$AA?6?$AA?$AA@ 00025710     s3c6410_usbdbgpdd:usbdbgpdd.obj
 0001:00014748       ??_C@_1DI@HBKLFACO@?$AAu?$AAs?$AAb?$AAp?$AAd?$AAd?$AA?3?$AA?5?$AAS?$AAu?$AAs?$AAp?$AAe?$AAn?$AAd?$AA?5?$AAd?$AAe?$AAt?$AAe?$AAc?$AAt?$AAe?$AAd?$AA?4?$AA?$AN?$AA?6?$AA?$AA@ 00025748     s3c6410_usbdbgpdd:usbdbgpdd.obj
 0001:00014780       ??_C@_1DE@CNDLGJKE@?$AAu?$AAs?$AAb?$AAp?$AAd?$AAd?$AA?3?$AA?5?$AAR?$AAe?$AAs?$AAe?$AAt?$AA?5?$AAd?$AAe?$AAt?$AAe?$AAc?$AAt?$AAe?$AAd?$AA?4?$AA?$AN?$AA?6?$AA?$AA@ 00025780     s3c6410_usbdbgpdd:usbdbgpdd.obj
 0001:000147b8       ??_C@_1EC@NMKKDMIO@?$AAu?$AAs?$AAb?$AAp?$AAd?$AAd?$AA?3?$AAD?$AAe?$AAv?$AAi?$AAc?$AAe?$AA?5?$AAd?$AAe?$AAt?$AAa?$AAc?$AAh?$AA?5?$AAd?$AAe?$AAt?$AAe?$AAc?$AAt?$AAe?$AAd?$AA?4?$AA?$AN?$AA?6@ 000257b8     s3c6410_usbdbgpdd:usbdbgpdd.obj
 0001:00014800       ??_C@_1EE@MFJIJHNG@?$AAu?$AAs?$AAb?$AAp?$AAd?$AAd?$AA?3?$AA?5?$AAD?$AAe?$AAv?$AAi?$AAc?$AAe?$AA?5?$AAa?$AAt?$AAt?$AAa?$AAc?$AAh?$AA?5?$AAd?$AAe?$AAt?$AAe?$AAc?$AAt?$AAe?$AAd?$AA?4?$AA?$AN@ 00025800     s3c6410_usbdbgpdd:usbdbgpdd.obj
 0001:00014848       ??_C@_1LI@EDOBPDPH@?$AAU?$AAs?$AAb?$AAD?$AAb?$AAg?$AAP?$AAd?$AAd?$AA_?$AAR?$AAe?$AAc?$AAv?$AAD?$AAa?$AAt?$AAa?$AA?3?$AA?5?$AAW?$AAa?$AAi?$AAt?$AAl?$AAo?$AAo?$AAp?$AA?3?$AA?5?$AAd?$AAw@ 00025848     s3c6410_usbdbgpdd:usbdbgpdd.obj
 0001:00014900       ??_C@_1LE@KJHMKMHM@?$AAU?$AAs?$AAb?$AAD?$AAb?$AAg?$AAP?$AAd?$AAd?$AA_?$AAR?$AAe?$AAc?$AAv?$AAD?$AAa?$AAt?$AAa?$AA?3?$AA?5?$AAW?$AAa?$AAi?$AAt?$AAl?$AAo?$AAo?$AAp?$AA?3?$AA?5?$AAd?$AAw@ 00025900     s3c6410_usbdbgpdd:usbdbgpdd.obj
 0001:000149b4       ??_C@_1DM@IJOLNNF@?$AA?$AN?$AA?6?$AAu?$AAs?$AAb?$AAp?$AAd?$AAd?$AA?3?$AA?5?$AAP?$AAo?$AAw?$AAe?$AAr?$AAi?$AAn?$AAg?$AA?5?$AAo?$AAf?$AAf?$AA?5?$AAU?$AAS?$AAB?$AA?4?$AA?$AN?$AA?6?$AA?$AA@ 000259b4     s3c6410_usbdbgpdd:usbdbgpdd.obj
 0001:000149f0       ??_C@_1DE@JFCHEKCJ@?$AAu?$AAs?$AAb?$AAp?$AAd?$AAd?$AA?3?$AA?5?$AAP?$AAo?$AAw?$AAe?$AAr?$AAO?$AAn?$AA?5?$AAs?$AAu?$AAc?$AAc?$AAe?$AAs?$AAs?$AA?$AN?$AA?6?$AA?$AA@ 000259f0     s3c6410_usbdbgpdd:usbdbgpdd.obj
 0001:00014a28       ??_C@_1GO@ELGKFPNI@?$AAu?$AAs?$AAb?$AAp?$AAd?$AAd?$AA?3?$AA?5?$AAP?$AAo?$AAw?$AAe?$AAr?$AAO?$AAn?$AA?5?$AA?9?$AA?5?$AAf?$AAa?$AAi?$AAl?$AAe?$AAd?$AA?5?$AAt?$AAo?$AA?5?$AAr?$AAe?$AA?9?$AAi@ 00025a28     s3c6410_usbdbgpdd:usbdbgpdd.obj
 0001:00014a98       ??_C@_1DK@NMGOGILD@?$AAu?$AAs?$AAb?$AAp?$AAd?$AAd?$AA?3?$AA?5?$AA?9?$AAU?$AAs?$AAb?$AAD?$AAb?$AAg?$AAP?$AAd?$AAd?$AA_?$AAC?$AAo?$AAn?$AAn?$AAe?$AAc?$AAt?$AA?$AN?$AA?6?$AA?$AA@ 00025a98     s3c6410_usbdbgpdd:usbdbgpdd.obj
 0001:00014ad4       ??_C@_1DK@KMBJHOFF@?$AAu?$AAs?$AAb?$AAp?$AAd?$AAd?$AA?3?$AA?5?$AA?$CL?$AAU?$AAs?$AAb?$AAD?$AAb?$AAg?$AAP?$AAd?$AAd?$AA_?$AAC?$AAo?$AAn?$AAn?$AAe?$AAc?$AAt?$AA?$AN?$AA?6?$AA?$AA@ 00025ad4     s3c6410_usbdbgpdd:usbdbgpdd.obj
 0001:00014b10       ??_C@_1EA@LIDLJNNE@?$AAu?$AAs?$AAb?$AAp?$AAd?$AAd?$AA?3?$AA?5?$AA?9?$AAU?$AAs?$AAb?$AAD?$AAb?$AAg?$AAP?$AAd?$AAd?$AA_?$AAD?$AAi?$AAs?$AAc?$AAo?$AAn?$AAn?$AAe?$AAc?$AAt?$AA?$AN?$AA?6?$AA?$AA@ 00025b10     s3c6410_usbdbgpdd:usbdbgpdd.obj
 0001:00014b50       ??_C@_1EA@DFJPPHBM@?$AAu?$AAs?$AAb?$AAp?$AAd?$AAd?$AA?3?$AA?5?$AA?$CL?$AAU?$AAs?$AAb?$AAD?$AAb?$AAg?$AAP?$AAd?$AAd?$AA_?$AAD?$AAi?$AAs?$AAc?$AAo?$AAn?$AAn?$AAe?$AAc?$AAt?$AA?$AN?$AA?6?$AA?$AA@ 00025b50     s3c6410_usbdbgpdd:usbdbgpdd.obj
 0001:00014b90       ??_C@_1MI@EGHHFOBG@?$AAU?$AAs?$AAb?$AAD?$AAb?$AAg?$AAP?$AAd?$AAd?$AA_?$AAE?$AAv?$AAe?$AAn?$AAt?$AAH?$AAa?$AAn?$AAd?$AAl?$AAe?$AAr?$AA?3?$AA?5?$AAR?$AAX?$AA_?$AAF?$AAI?$AAF?$AAO?$AA_@ 00025b90     s3c6410_usbdbgpdd:usbdbgpdd.obj
 0001:00014c58       ??_C@_1EO@LOJPGPGO@?$AAu?$AAs?$AAb?$AAp?$AAd?$AAd?$AA?3?$AAe?$AAp?$AA?$CF?$AAd?$AA?5?$AAr?$AAe?$AAc?$AAv?$AA?5?$AA?$CF?$AAd?$AA?5?$AAb?$AAy?$AAt?$AAe?$AAs?$AA?5?$AAf?$AAl?$AAa?$AAg?$AAs?$AA?$DN@ 00025c58     s3c6410_usbdbgpdd:usbdbgpdd.obj
 0001:00014ca8       ??_C@_1FM@NLJJDJGN@?$AAu?$AAs?$AAb?$AAp?$AAd?$AAd?$AA?3?$AAE?$AAR?$AAR?$AAO?$AAR?$AA?3?$AA?5?$AAr?$AAx?$AA?5?$AA?$CF?$AAd?$AA?5?$AAb?$AAy?$AAt?$AAe?$AAs?$AA?5?$AA?$DO?$AA?5?$AAb?$AAu?$AAf?$AAl@ 00025ca8     s3c6410_usbdbgpdd:usbdbgpdd.obj
 0001:00014d08       ??_C@_1HO@IECLJCJF@?$AAu?$AAs?$AAb?$AAp?$AAd?$AAd?$AA?3?$AAU?$AAs?$AAb?$AAD?$AAb?$AAg?$AAP?$AAd?$AAd?$AA_?$AAR?$AAe?$AAc?$AAv?$AAD?$AAa?$AAt?$AAa?$AA?3?$AA?5?$AAc?$AAo?$AAu?$AAn?$AAt@ 00025d08     s3c6410_usbdbgpdd:usbdbgpdd.obj
 0001:00014d88       ??_C@_1FO@KGCMLMFL@?$AAu?$AAs?$AAb?$AAp?$AAd?$AAd?$AA?3?$AAU?$AAs?$AAb?$AAD?$AAb?$AAg?$AAP?$AAd?$AAd?$AA_?$AAR?$AAe?$AAc?$AAv?$AAD?$AAa?$AAt?$AAa?$AA?3?$AA?5?$AA?$CB?$AAO?$AAU?$AAT?$AA_@ 00025d88     s3c6410_usbdbgpdd:usbdbgpdd.obj
 0001:00014de8       ??_C@_1FI@PCJBCIDK@?$AAu?$AAs?$AAb?$AAp?$AAd?$AAd?$AA?5?$AA?$CI?$AA?9?$AA?9?$AA?$CJ?$AA?3?$AAe?$AAp?$AA?$CF?$AAd?$AA?5?$AAs?$AAe?$AAn?$AAd?$AA?5?$AA?$CF?$AAd?$AA?5?$AAb?$AAy?$AAt?$AAe?$AAs?$AA?5?$AAf@ 00025de8     s3c6410_usbdbgpdd:usbdbgpdd.obj
 0001:00014e40       ??_C@_1HC@HMEPOAEE@?$AAu?$AAs?$AAb?$AAp?$AAd?$AAd?$AA?5?$AA?$CI?$AA?$CL?$AA?$CL?$AA?$CJ?$AA?3?$AAe?$AAp?$AA?$CF?$AAd?$AA?5?$AAT?$AAo?$AA?5?$AAs?$AAe?$AAn?$AAd?$AA?5?$AA?$CF?$AAd?$AA?5?$AAb?$AAy?$AAt?$AAe@ 00025e40     s3c6410_usbdbgpdd:usbdbgpdd.obj
 0001:00014eb4       ??_C@_1CK@INPLDAMD@?$AA?9?$AAU?$AAs?$AAb?$AAD?$AAb?$AAg?$AAP?$AAd?$AAd?$AA_?$AAS?$AAe?$AAn?$AAd?$AAC?$AAm?$AAd?$AA?$AN?$AA?6?$AA?$AA@ 00025eb4     s3c6410_usbdbgpdd:usbdbgpdd.obj
 0001:00014ee0       ??_C@_1CK@PNIMCGCF@?$AA?$CL?$AAU?$AAs?$AAb?$AAD?$AAb?$AAg?$AAP?$AAd?$AAd?$AA_?$AAS?$AAe?$AAn?$AAd?$AAC?$AAm?$AAd?$AA?$AN?$AA?6?$AA?$AA@ 00025ee0     s3c6410_usbdbgpdd:usbdbgpdd.obj
 0001:00014f0c       ??_C@_1DE@NKABPKIP@?$AAu?$AAs?$AAb?$AAp?$AAd?$AAd?$AA?3?$AA?5?$AA?9?$AAU?$AAs?$AAb?$AAD?$AAb?$AAg?$AAP?$AAd?$AAd?$AA_?$AAI?$AAn?$AAi?$AAt?$AA?$AN?$AA?6?$AA?$AA@ 00025f0c     s3c6410_usbdbgpdd:usbdbgpdd.obj
 0001:00014f40       ??_C@_1DE@BDMBANHD@?$AAu?$AAs?$AAb?$AAp?$AAd?$AAd?$AA?3?$AA?5?$AA?$CL?$AAU?$AAs?$AAb?$AAD?$AAb?$AAg?$AAP?$AAd?$AAd?$AA_?$AAI?$AAn?$AAi?$AAt?$AA?$AN?$AA?6?$AA?$AA@ 00025f40     s3c6410_usbdbgpdd:usbdbgpdd.obj
 0001:00015008       ??_C@_1FA@EFAOIIFK@?$AAU?$AAs?$AAb?$AAD?$AAb?$AAg?$AA?3?$AA?5?$AAS?$AAe?$AAt?$AAt?$AAi?$AAn?$AAg?$AA?5?$AAd?$AAe?$AAv?$AAi?$AAc?$AAe?$AA?5?$AAa?$AAd?$AAd?$AAr?$AAe?$AAs?$AAs?$AA?5?$AAt@ 00026008     s3c6410_usbdbgpdd:otgdev.obj
 0001:00015058       ??_C@_1HG@GCHENHH@?$AAu?$AAs?$AAb?$AAp?$AAd?$AAd?$AA?3?$AA?5?$AAI?$AAn?$AAi?$AAt?$AAE?$AAn?$AAd?$AAP?$AAo?$AAi?$AAn?$AAt?$AAs?$AA?3?$AA?5?$AAs?$AAe?$AAt?$AAt?$AAi?$AAn?$AAg?$AA?5?$AAE@ 00026058     s3c6410_usbdbgpdd:otgdev.obj
 0001:000150d0       ??_C@_1HI@FNMHPIDI@?$AAu?$AAs?$AAb?$AAp?$AAd?$AAd?$AA?3?$AA?5?$AAI?$AAn?$AAi?$AAt?$AAE?$AAn?$AAd?$AAP?$AAo?$AAi?$AAn?$AAt?$AAs?$AA?3?$AA?5?$AAs?$AAe?$AAt?$AAt?$AAi?$AAn?$AAg?$AA?5?$AAE@ 000260d0     s3c6410_usbdbgpdd:otgdev.obj
 0001:00015148       ??_C@_1HA@HMOMLLJC@?$AAu?$AAs?$AAb?$AAp?$AAd?$AAd?$AA?3?$AA?5?$AAE?$AAn?$AAu?$AAm?$AAe?$AAr?$AAa?$AAt?$AAe?$AAd?$AA?5?$AAS?$AAp?$AAe?$AAe?$AAd?$AA?5?$AAn?$AAo?$AAt?$AA?5?$AAh?$AAi?$AAg@ 00026148     s3c6410_usbdbgpdd:otgdev.obj
 0001:000151b8       ??_C@_1EG@GJKMCP@?$AAu?$AAs?$AAb?$AAp?$AAd?$AAd?$AA?3?$AA?5?$AAE?$AAn?$AAu?$AAm?$AAe?$AAr?$AAa?$AAt?$AAe?$AAd?$AA?5?$AAa?$AAt?$AA?5?$AAF?$AAu?$AAl?$AAl?$AA?5?$AAS?$AAp?$AAe?$AAe?$AAd@ 000261b8     s3c6410_usbdbgpdd:otgdev.obj
 0001:00015200       ??_C@_1EG@GACIOBOH@?$AAu?$AAs?$AAb?$AAp?$AAd?$AAd?$AA?3?$AA?5?$AAE?$AAn?$AAu?$AAm?$AAe?$AAr?$AAa?$AAt?$AAe?$AAd?$AA?5?$AAa?$AAt?$AA?5?$AAH?$AAi?$AAg?$AAh?$AA?5?$AAS?$AAp?$AAe?$AAe?$AAd@ 00026200     s3c6410_usbdbgpdd:otgdev.obj
 0001:00015248       ??_C@_1GM@FIPDOEJA@?$AAu?$AAs?$AAb?$AAp?$AAd?$AAd?$AA?3?$AA?5?$AAE?$AAr?$AAr?$AAo?$AAr?$AA?$CB?$AA?5?$AAO?$AAT?$AAG?$AAD?$AAe?$AAv?$AAi?$AAc?$AAe?$AA_?$AAI?$AAn?$AAi?$AAt?$AA?3?$AA?5?$AAC@ 00026248     s3c6410_usbdbgpdd:otgdev.obj
 0001:000152b8       ??_C@_1HA@FKGGAMGL@?$AAu?$AAs?$AAb?$AAp?$AAd?$AAd?$AA?3?$AA?5?$AAI?$AAn?$AAi?$AAt?$AA?3?$AA?5?$AAR?$AAu?$AAn?$AAn?$AAi?$AAn?$AAg?$AA?5?$AAa?$AAs?$AA?5?$AAH?$AAi?$AAg?$AAh?$AA?5?$AAS?$AAp@ 000262b8     s3c6410_usbdbgpdd:otgdev.obj
 0001:00015328       ??_C@_1DE@IJJEAKCK@?$AAu?$AAs?$AAb?$AAp?$AAd?$AAd?$AA?3?$AA?5?$AA?$CL?$AAO?$AAT?$AAG?$AAD?$AAe?$AAv?$AAi?$AAc?$AAe?$AA_?$AAI?$AAn?$AAi?$AAt?$AA?$AN?$AA?6?$AA?$AA@ 00026328     s3c6410_usbdbgpdd:otgdev.obj
 0001:00015360       ??_C@_1EO@PLKMAJKO@?$AAu?$AAs?$AAb?$AAp?$AAd?$AAd?$AA?3?$AA?5?$AAI?$AAn?$AAi?$AAt?$AAE?$AAn?$AAd?$AAP?$AAt?$AAs?$AA?5?$AAE?$AAp?$AAN?$AAu?$AAm?$AA?5?$AA?$CI?$AA?$CF?$AAd?$AA?$CJ?$AA?5?$AA?$DO?$AA?5@ 00026360     s3c6410_usbdbgpdd:otgdev.obj
 0001:000154f0       ??_C@_1DO@KEJNDMJE@?$AA?$FL?$AAI?$AAN?$AAF?$AAO?$AA?$FN?$AA?5?$AA?9?$AA?9?$AAN?$AAA?$AAN?$AAD?$AA_?$AAG?$AAe?$AAt?$AAP?$AAl?$AAa?$AAt?$AAf?$AAo?$AAr?$AAm?$AAI?$AAn?$AAf?$AAo?$AA?6?$AA?$AA@ 000264f0     SMDK6410_MLC_FIL:S3C6410_FIL.obj
 0001:00015530       ??_C@_1DO@PCPNAJHH@?$AA?$FL?$AAI?$AAN?$AAF?$AAO?$AA?$FN?$AA?5?$AA?$CL?$AA?$CL?$AAN?$AAA?$AAN?$AAD?$AA_?$AAG?$AAe?$AAt?$AAP?$AAl?$AAa?$AAt?$AAf?$AAo?$AAr?$AAm?$AAI?$AAn?$AAf?$AAo?$AA?6?$AA?$AA@ 00026530     SMDK6410_MLC_FIL:S3C6410_FIL.obj
 0001:00015570       ??_C@_1FO@MEDJLPGO@?$AA?$FL?$AAF?$AAI?$AAL?$AA?3?$AAE?$AAR?$AAR?$AA?$FN?$AA?9?$AA?9?$AAN?$AAA?$AAN?$AAD?$AA_?$AAW?$AAr?$AAi?$AAt?$AAe?$AA?$CI?$AA?$CJ?$AA?5?$AA?3?$AA?5?$AAP?$AAa?$AAr?$AAa?$AAm?$AAe@ 00026570     SMDK6410_MLC_FIL:S3C6410_FIL.obj
 0001:000155d0       ??_C@_1KG@NBIGFAHM@?$AAC?$AA?3?$AA?2?$AAW?$AAI?$AAN?$AAC?$AAE?$AA6?$AA0?$AA0?$AA?2?$AAP?$AAL?$AAA?$AAT?$AAF?$AAO?$AAR?$AAM?$AA?2?$AAT?$AAe?$AAn?$AAB?$AAy?$AAT?$AAe?$AAn?$AA6?$AA4?$AA1@ 000265d0     SMDK6410_MLC_FIL:S3C6410_FIL.obj
 0001:00015678       ??_C@_1EI@EGDLFOCE@?$AA?$CD?$AA?$CD?$AA?$CD?$AA?$CD?$AA?$CD?$AA?5?$AAE?$AAr?$AAr?$AAo?$AAr?$AA?5?$AAw?$AAr?$AAi?$AAt?$AAe?$AA?5?$AAo?$AAp?$AAe?$AAr?$AAa?$AAt?$AAi?$AAo?$AAn?$AA?5?$AA?$CD?$AA?$CD?$AA?$CD?$AA?$CD@ 00026678     SMDK6410_MLC_FIL:S3C6410_FIL.obj
 0001:000156c0       ??_C@_1EO@BNEFEJPM@?$AA?$FL?$AAF?$AAI?$AAL?$AA?3?$AAE?$AAR?$AAR?$AA?$FN?$AA?5?$AAN?$AAA?$AAN?$AAD?$AA_?$AAS?$AAy?$AAn?$AAc?$AA?$CI?$AA?$CJ?$AA?5?$AA?3?$AA?5?$AAS?$AAt?$AAa?$AAt?$AAu?$AAs?$AA?5?$AAE@ 000266c0     SMDK6410_MLC_FIL:S3C6410_FIL.obj
 0001:00015710       ??_C@_1GC@KHNKCKGP@?$AA?$FL?$AAF?$AAI?$AAL?$AA?3?$AAE?$AAR?$AAR?$AA?$FN?$AA?5?$AAN?$AAA?$AAN?$AAD?$AA_?$AAS?$AAy?$AAn?$AAc?$AA?$CI?$AA?$CJ?$AA?5?$AA?3?$AA?5?$AAR?$AAi?$AAg?$AAh?$AAt?$AA?9?$AAp?$AAl@ 00026710     SMDK6410_MLC_FIL:S3C6410_FIL.obj
 0001:00015778       ??_C@_1GA@LNGDCHAJ@?$AA?$FL?$AAF?$AAI?$AAL?$AA?3?$AAE?$AAR?$AAR?$AA?$FN?$AA?5?$AAN?$AAA?$AAN?$AAD?$AA_?$AAS?$AAy?$AAn?$AAc?$AA?$CI?$AA?$CJ?$AA?5?$AA?3?$AA?5?$AAL?$AAe?$AAf?$AAt?$AA?9?$AAp?$AAl?$AAa@ 00026778     SMDK6410_MLC_FIL:S3C6410_FIL.obj
 0001:000157d8       ??_C@_1FM@MGJKCIAI@?$AA?$FL?$AAF?$AAI?$AAL?$AA?3?$AAE?$AAR?$AAR?$AA?$FN?$AA?9?$AA?9?$AAN?$AAA?$AAN?$AAD?$AA_?$AAS?$AAy?$AAn?$AAc?$AA?$CI?$AA?$CJ?$AA?5?$AA?3?$AA?5?$AAP?$AAa?$AAr?$AAa?$AAm?$AAe?$AAt@ 000267d8     SMDK6410_MLC_FIL:S3C6410_FIL.obj
 0001:00015834       ??_C@_1DC@JLAIJHOC@?$AA?$FL?$AAF?$AAI?$AAL?$AA?$FN?$AA?5?$AA?5?$AAM?$AAI?$AAD?$AA?5?$AA?5?$AA?5?$AA?5?$AA?$DN?$AA?5?$AA0?$AAx?$AA?$CF?$AA0?$AA2?$AAx?$AA?$AN?$AA?6?$AA?$AA@ 00026834     SMDK6410_MLC_FIL:S3C6410_FIL.obj
 0001:00015868       ??_C@_1DC@HONIPCFJ@?$AA?$FL?$AAF?$AAI?$AAL?$AA?$FN?$AA?5?$AA?5?$AAD?$AAI?$AAD?$AA?5?$AA?5?$AA?5?$AA?5?$AA?$DN?$AA?5?$AA0?$AAx?$AA?$CF?$AA0?$AA2?$AAx?$AA?$AN?$AA?6?$AA?$AA@ 00026868     SMDK6410_MLC_FIL:S3C6410_FIL.obj
 0001:0001589c       ??_C@_1DC@KBKINCHJ@?$AA?$FL?$AAF?$AAI?$AAL?$AA?$FN?$AA?5?$AA?5?$AAH?$AAI?$AAD?$AA?$FL?$AA0?$AA?$FN?$AA?5?$AA?$DN?$AA?5?$AA0?$AAx?$AA?$CF?$AA0?$AA2?$AAx?$AA?$AN?$AA?6?$AA?$AA@ 0002689c     SMDK6410_MLC_FIL:S3C6410_FIL.obj
 0001:000158d0       ??_C@_1DC@KABNCPGE@?$AA?$FL?$AAF?$AAI?$AAL?$AA?$FN?$AA?5?$AA?5?$AAH?$AAI?$AAD?$AA?$FL?$AA1?$AA?$FN?$AA?5?$AA?$DN?$AA?5?$AA0?$AAx?$AA?$CF?$AA0?$AA2?$AAx?$AA?$AN?$AA?6?$AA?$AA@ 000268d0     SMDK6410_MLC_FIL:S3C6410_FIL.obj
 0001:00015904       ??_C@_1DC@KCMDCIED@?$AA?$FL?$AAF?$AAI?$AAL?$AA?$FN?$AA?5?$AA?5?$AAH?$AAI?$AAD?$AA?$FL?$AA2?$AA?$FN?$AA?5?$AA?$DN?$AA?5?$AA0?$AAx?$AA?$CF?$AA0?$AA2?$AAx?$AA?$AN?$AA?6?$AA?$AA@ 00026904     SMDK6410_MLC_FIL:S3C6410_FIL.obj
 0001:00015938       ??_C@_1DC@ONBMJEFD@?$AA?$FL?$AAF?$AAI?$AAL?$AA?$FN?$AA?5?$AA?$CD?$AA?$CD?$AA?$CD?$AA?$CD?$AA?$CD?$AA?$CD?$AA?$CD?$AA?$CD?$AA?$CD?$AA?$CD?$AA?$CD?$AA?$CD?$AA?$CD?$AA?$CD?$AA?$CD?$AA?$CD?$AA?$AN?$AA?6?$AA?$AA@ 00026938     SMDK6410_MLC_FIL:S3C6410_FIL.obj
 0001:00015970       ??_C@_1GM@OHKOLCPC@?$AA?$AN?$AA?6?$AA?$DN?$AA?$DN?$AA?$DN?$AA?$DN?$AA?$DN?$AA?$DN?$AA?$DN?$AA?$DN?$AA?$DN?$AA?$DN?$AA?$DN?$AA?$DN?$AA?$DN?$AA?$DN?$AA?$DN?$AA?$DN?$AA?$DN?$AA?$DN?$AA?$DN?$AA?$DN?$AA?$DN?$AA?$DN?$AA?$DN?$AA?$DN?$AA?$DN?$AA?$DN?$AA?$DN?$AA?$DN?$AA?$DN?$AA?$DN@ 00026970     SMDK6410_MLC_FIL:S3C6410_FIL.obj
 0001:000159dc       ??_C@_1BK@PEHEOPNG@?$AAS?$AAp?$AAa?$AAr?$AAe?$AA?5?$AAD?$AAa?$AAt?$AAa?$AA?$AN?$AA?6?$AA?$AA@ 000269dc     SMDK6410_MLC_FIL:S3C6410_FIL.obj
 0001:000159f8       ??_C@_15JNBOKNOG@?$AA?$AN?$AA?6?$AA?$AA@ 000269f8     SMDK6410_MLC_FIL:S3C6410_FIL.obj
 0001:00015a00       ??_C@_1GI@IFAPNF@?$AA?$DN?$AA?$DN?$AA?$DN?$AA?$DN?$AA?$DN?$AA?$DN?$AA?$DN?$AA?$DN?$AA?$DN?$AA?$DN?$AA?$DN?$AA?$DN?$AA?$DN?$AA?$DN?$AA?$DN?$AA?$DN?$AA?$DN?$AA?$DN?$AA?$DN?$AA?$DN?$AA?$DN?$AA?$DN?$AA?$DN?$AA?$DN?$AA?$DN?$AA?$DN?$AA?$DN?$AA?$DN?$AA?$DN?$AA?$DN?$AA?$DN?$AA?$DN@ 00026a00     SMDK6410_MLC_FIL:S3C6410_FIL.obj
 0001:00015a68       ??_C@_1GK@LBMDBNGG@?$AA?$FL?$AAF?$AAI?$AAL?$AA?3?$AAE?$AAR?$AAR?$AA?$FN?$AA?5?$AAD?$AAe?$AAc?$AAo?$AAd?$AAi?$AAn?$AAg?$AA_?$AAM?$AAa?$AAi?$AAn?$AAE?$AAC?$AAC?$AA?$CI?$AA?$CJ?$AA?5?$AA?3?$AA?5?$AAU@ 00026a68     SMDK6410_MLC_FIL:S3C6410_FIL.obj
 0001:00015ad8       ??_C@_1IK@CDLGPKO@?$AA?$FL?$AAF?$AAI?$AAL?$AA?3?$AAE?$AAR?$AAR?$AA?$FN?$AA?5?$AAD?$AAe?$AAc?$AAo?$AAd?$AAi?$AAn?$AAg?$AA_?$AAM?$AAa?$AAi?$AAn?$AA8?$AAB?$AAi?$AAt?$AAE?$AAC?$AAC?$AA?$CI?$AA?$CJ@ 00026ad8     SMDK6410_MLC_FIL:S3C6410_FIL.obj
 0001:00015b68       ??_C@_1GM@NOINCGID@?$AA?$FL?$AAF?$AAI?$AAL?$AA?$FN?$AA?5?$AAD?$AAe?$AAc?$AAo?$AAd?$AAi?$AAn?$AAg?$AA_?$AAS?$AAp?$AAa?$AAr?$AAe?$AAE?$AAC?$AAC?$AA?$CI?$AA?$CJ?$AA?5?$AA?3?$AA?5?$AAE?$AAC?$AAC?$AA?5@ 00026b68     SMDK6410_MLC_FIL:S3C6410_FIL.obj
 0001:00015bd8       ??_C@_1GM@NGBGEBAN@?$AA?$FL?$AAF?$AAI?$AAL?$AA?3?$AAE?$AAR?$AAR?$AA?$FN?$AA?5?$AAD?$AAe?$AAc?$AAo?$AAd?$AAi?$AAn?$AAg?$AA_?$AAS?$AAp?$AAa?$AAr?$AAe?$AAE?$AAC?$AAC?$AA?$CI?$AA?$CJ?$AA?5?$AA?3?$AA?5@ 00026bd8     SMDK6410_MLC_FIL:S3C6410_FIL.obj
 0001:00015c48       ??_C@_1HE@IICIMJLL@?$AA?$FL?$AAF?$AAI?$AAL?$AA?$FN?$AA?5?$AAD?$AAe?$AAc?$AAo?$AAd?$AAi?$AAn?$AAg?$AA_?$AAS?$AAp?$AAa?$AAr?$AAe?$AA8?$AAB?$AAi?$AAt?$AAE?$AAC?$AAC?$AA?$CI?$AA?$CJ?$AA?5?$AA?3?$AA?5@ 00026c48     SMDK6410_MLC_FIL:S3C6410_FIL.obj
 0001:00015cc0       ??_C@_1IM@MFLAHPN@?$AA?$FL?$AAF?$AAI?$AAL?$AA?3?$AAE?$AAR?$AAR?$AA?$FN?$AA?5?$AAD?$AAe?$AAc?$AAo?$AAd?$AAi?$AAn?$AAg?$AA_?$AAS?$AAp?$AAa?$AAr?$AAe?$AA8?$AAB?$AAi?$AAt?$AAE?$AAC?$AAC?$AA?$CI@ 00026cc0     SMDK6410_MLC_FIL:S3C6410_FIL.obj
 0001:00015d50       ??_C@_1EO@PPDOPOID@?$AA?$FL?$AAT?$AAS?$AAT?$AA?$FN?$AA?5?$AAM?$AAL?$AAC?$AA_?$AAW?$AAr?$AAi?$AAt?$AAe?$AA_?$AAR?$AAA?$AAW?$AA?$CI?$AA?$CJ?$AA?5?$AA?3?$AA?5?$AAS?$AAt?$AAa?$AAt?$AAu?$AAs?$AA?5?$AAE@ 00026d50     SMDK6410_MLC_FIL:S3C6410_FIL.obj
 0001:00015da0       ??_C@_1DC@INBDMJDD@?$AA?$FL?$AAT?$AAS?$AAT?$AA?$FN?$AA?9?$AA?9?$AAM?$AAL?$AAC?$AA_?$AAE?$AAr?$AAa?$AAs?$AAe?$AA_?$AAR?$AAA?$AAW?$AA?$CI?$AA?$CJ?$AA?$AN?$AA?6?$AA?$AA@ 00026da0     SMDK6410_MLC_FIL:S3C6410_FIL.obj
 0001:00015dd8       ??_C@_1EC@DJGJOJPM@?$AAM?$AAL?$AAC?$AA_?$AAE?$AAr?$AAa?$AAs?$AAe?$AA_?$AAR?$AAA?$AAW?$AA?$CI?$AA?$CJ?$AA?5?$AA?3?$AA?5?$AAS?$AAt?$AAa?$AAt?$AAu?$AAs?$AA?5?$AAE?$AAr?$AAr?$AAo?$AAr?$AA?$AN?$AA?6@ 00026dd8     SMDK6410_MLC_FIL:S3C6410_FIL.obj
 0001:00015e20       ??_C@_1GK@LIHJAHPP@?$AA?6?$AA?$DN?$AA?$DN?$AA?$DN?$AA?$DN?$AA?$DN?$AA?$DN?$AA?$DN?$AA?$DN?$AA?$DN?$AA?$DN?$AA?$DN?$AA?$DN?$AA?$DN?$AA?$DN?$AA?$DN?$AA?$DN?$AA?$DN?$AA?$DN?$AA?$DN?$AA?$DN?$AA?$DN?$AA?$DN?$AA?$DN?$AA?$DN?$AA?$DN?$AA?$DN?$AA?$DN?$AA?$DN?$AA?$DN?$AA?$DN?$AA?$DN@ 00026e20     SMDK6410_MLC_FIL:S3C6410_FIL.obj
 0001:00015e8c       ??_C@_1CM@COKADDOB@?$AAN?$AAF?$AAC?$AAO?$AAN?$AAF?$AA?5?$AA?5?$AA?5?$AA?5?$AA?5?$AA?$DN?$AA?5?$AA0?$AAx?$AA?$CF?$AA0?$AA8?$AAx?$AA?$AN?$AA?6?$AA?$AA@ 00026e8c     SMDK6410_MLC_FIL:S3C6410_FIL.obj
 0001:00015eb8       ??_C@_1CM@ECBCIICO@?$AAN?$AAF?$AAC?$AAO?$AAN?$AAT?$AA?5?$AA?5?$AA?5?$AA?5?$AA?5?$AA?$DN?$AA?5?$AA0?$AAx?$AA?$CF?$AA0?$AA8?$AAx?$AA?$AN?$AA?6?$AA?$AA@ 00026eb8     SMDK6410_MLC_FIL:S3C6410_FIL.obj
 0001:00015ee4       ??_C@_1CM@FDBBLMIB@?$AAN?$AAF?$AAM?$AAE?$AAC?$AAC?$AAD?$AA0?$AA?5?$AA?5?$AA?5?$AA?$DN?$AA?5?$AA0?$AAx?$AA?$CF?$AA0?$AA8?$AAx?$AA?$AN?$AA?6?$AA?$AA@ 00026ee4     SMDK6410_MLC_FIL:S3C6410_FIL.obj
 0001:00015f10       ??_C@_1CM@GPHBFPIJ@?$AAN?$AAF?$AAM?$AAE?$AAC?$AAC?$AAD?$AA1?$AA?5?$AA?5?$AA?5?$AA?$DN?$AA?5?$AA0?$AAx?$AA?$CF?$AA0?$AA8?$AAx?$AA?$AN?$AA?6?$AA?$AA@ 00026f10     SMDK6410_MLC_FIL:S3C6410_FIL.obj
 0001:00015f3c       ??_C@_1CM@PIBAGDJC@?$AAN?$AAF?$AAS?$AAE?$AAC?$AAC?$AAD?$AA?5?$AA?5?$AA?5?$AA?5?$AA?$DN?$AA?5?$AA0?$AAx?$AA?$CF?$AA0?$AA8?$AAx?$AA?$AN?$AA?6?$AA?$AA@ 00026f3c     SMDK6410_MLC_FIL:S3C6410_FIL.obj
 0001:00015f68       ??_C@_1CM@DGGPPFE@?$AAN?$AAF?$AAS?$AAB?$AAL?$AAK?$AA?5?$AA?5?$AA?5?$AA?5?$AA?5?$AA?$DN?$AA?5?$AA0?$AAx?$AA?$CF?$AA0?$AA8?$AAx?$AA?$AN?$AA?6?$AA?$AA@ 00026f68     SMDK6410_MLC_FIL:S3C6410_FIL.obj
 0001:00015f94       ??_C@_1CM@KCPIJNLK@?$AAN?$AAF?$AAE?$AAB?$AAL?$AAK?$AA?5?$AA?5?$AA?5?$AA?5?$AA?5?$AA?$DN?$AA?5?$AA0?$AAx?$AA?$CF?$AA0?$AA8?$AAx?$AA?$AN?$AA?6?$AA?$AA@ 00026f94     SMDK6410_MLC_FIL:S3C6410_FIL.obj
 0001:00015fc0       ??_C@_1CM@NFNOBAAL@?$AAN?$AAF?$AAS?$AAT?$AAA?$AAT?$AA?5?$AA?5?$AA?5?$AA?5?$AA?5?$AA?$DN?$AA?5?$AA0?$AAx?$AA?$CF?$AA0?$AA8?$AAx?$AA?$AN?$AA?6?$AA?$AA@ 00026fc0     SMDK6410_MLC_FIL:S3C6410_FIL.obj
 0001:00015fec       ??_C@_1CM@KHCODLFP@?$AAN?$AAF?$AAE?$AAC?$AAC?$AAE?$AAR?$AAR?$AA0?$AA?5?$AA?5?$AA?$DN?$AA?5?$AA0?$AAx?$AA?$CF?$AA0?$AA8?$AAx?$AA?$AN?$AA?6?$AA?$AA@ 00026fec     SMDK6410_MLC_FIL:S3C6410_FIL.obj
 0001:00016018       ??_C@_1CM@KGJLMGEC@?$AAN?$AAF?$AAE?$AAC?$AAC?$AAE?$AAR?$AAR?$AA1?$AA?5?$AA?5?$AA?$DN?$AA?5?$AA0?$AAx?$AA?$CF?$AA0?$AA8?$AAx?$AA?$AN?$AA?6?$AA?$AA@ 00027018     SMDK6410_MLC_FIL:S3C6410_FIL.obj
 0001:00016044       ??_C@_1CM@PJJCDG@?$AAN?$AAF?$AAM?$AAE?$AAC?$AAC?$AA0?$AA?5?$AA?5?$AA?5?$AA?5?$AA?$DN?$AA?5?$AA0?$AAx?$AA?$CF?$AA0?$AA8?$AAx?$AA?$AN?$AA?6?$AA?$AA@ 00027044     SMDK6410_MLC_FIL:S3C6410_FIL.obj
 0001:00016070       ??_C@_1CM@PBCDJHJM@?$AAN?$AAF?$AAM?$AAE?$AAC?$AAC?$AA1?$AA?5?$AA?5?$AA?5?$AA?5?$AA?$DN?$AA?5?$AA0?$AAx?$AA?$CF?$AA0?$AA8?$AAx?$AA?$AN?$AA?6?$AA?$AA@ 00027070     SMDK6410_MLC_FIL:S3C6410_FIL.obj
 0001:0001609c       ??_C@_1CM@MGENBPMO@?$AAN?$AAF?$AAS?$AAE?$AAC?$AAC?$AA?5?$AA?5?$AA?5?$AA?5?$AA?5?$AA?$DN?$AA?5?$AA0?$AAx?$AA?$CF?$AA0?$AA8?$AAx?$AA?$AN?$AA?6?$AA?$AA@ 0002709c     SMDK6410_MLC_FIL:S3C6410_FIL.obj
 0001:000160c8       ??_C@_1CM@KNPCOMHO@?$AAN?$AAF?$AAM?$AAL?$AAC?$AAB?$AAI?$AAT?$AAP?$AAT?$AA?5?$AA?$DN?$AA?5?$AA0?$AAx?$AA?$CF?$AA0?$AA8?$AAx?$AA?$AN?$AA?6?$AA?$AA@ 000270c8     SMDK6410_MLC_FIL:S3C6410_FIL.obj
 0001:000160f8       ??_C@_1GK@DENMMCK@?$AA?$DN?$AA?$DN?$AA?$DN?$AA?$DN?$AA?$DN?$AA?$DN?$AA?$DN?$AA?$DN?$AA?$DN?$AA?$DN?$AA?$DN?$AA?$DN?$AA?$DN?$AA?$DN?$AA?$DN?$AA?$DN?$AA?$DN?$AA?$DN?$AA?$DN?$AA?$DN?$AA?$DN?$AA?$DN?$AA?$DN?$AA?$DN?$AA?$DN?$AA?$DN?$AA?$DN?$AA?$DN?$AA?$DN?$AA?$DN?$AA?$DN?$AA?$DN@ 000270f8     SMDK6410_MLC_FIL:S3C6410_FIL.obj
 0001:00016168       ??_C@_1EO@IKLFPLOF@?$AA?$FL?$AAF?$AAI?$AAL?$AA?$FN?$AA?5?$AA?$CD?$AA?$CD?$AA?$CD?$AA?$CD?$AA?$CD?$AA?$CD?$AA?$CD?$AA?$CD?$AA?$CD?$AA?$CD?$AA?$CD?$AA?$CD?$AA?$CD?$AA?$CD?$AA?$CD?$AA?$CD?$AA?$CD?$AA?$CD?$AA?$CD?$AA?$CD?$AA?$CD?$AA?$CD?$AA?$CD?$AA?$CD?$AA?$CD?$AA?$CD@ 00027168     SMDK6410_MLC_FIL:S3C6410_FIL.obj
 0001:000161b8       ??_C@_1EA@OMJKFEEE@?$AA?$FL?$AAF?$AAI?$AAL?$AA?$FN?$AA?5?$AA?5?$AAF?$AAI?$AAL?$AA?5?$AAG?$AAl?$AAo?$AAb?$AAa?$AAl?$AA?5?$AAI?$AAn?$AAf?$AAo?$AAr?$AAm?$AAa?$AAt?$AAi?$AAo?$AAn?$AA?$AN?$AA?6?$AA?$AA@ 000271b8     SMDK6410_MLC_FIL:S3C6410_FIL.obj
 0001:000161f8       ??_C@_1DE@IIOGFKIP@?$AA?$FL?$AAF?$AAI?$AAL?$AA?$FN?$AA?5?$AA?5?$AAB?$AAA?$AAN?$AAK?$AAS?$AA_?$AAT?$AAO?$AAT?$AAA?$AAL?$AA?5?$AA?$DN?$AA?5?$AA?$CF?$AAd?$AA?$AN?$AA?6?$AA?$AA@ 000271f8     SMDK6410_MLC_FIL:S3C6410_FIL.obj
 0001:0001622c       ??_C@_1DM@EGFHOPEM@?$AA?$FL?$AAF?$AAI?$AAL?$AA?$FN?$AA?5?$AA?5?$AAB?$AAL?$AAO?$AAC?$AAK?$AAS?$AA_?$AAP?$AAE?$AAR?$AA_?$AAB?$AAA?$AAN?$AAK?$AA?5?$AA?$DN?$AA?5?$AA?$CF?$AAd?$AA?$AN?$AA?6?$AA?$AA@ 0002722c     SMDK6410_MLC_FIL:S3C6410_FIL.obj
 0001:00016268       ??_C@_1EA@JKFNBMNE@?$AA?$FL?$AAF?$AAI?$AAL?$AA?$FN?$AA?5?$AA?5?$AAT?$AAW?$AAO?$AA_?$AAP?$AAL?$AAA?$AAN?$AAE?$AA_?$AAP?$AAR?$AAO?$AAG?$AAR?$AAA?$AAM?$AA?5?$AA?$DN?$AA?5?$AA?$CF?$AAd?$AA?$AN?$AA?6?$AA?$AA@ 00027268     SMDK6410_MLC_FIL:S3C6410_FIL.obj
 0001:000162a8       ??_C@_1EG@DKEHJBPL@?$AA?$FL?$AAF?$AAI?$AAL?$AA?$FN?$AA?5?$AA?5?$AAS?$AAU?$AAP?$AAP?$AAO?$AAR?$AAT?$AA_?$AAI?$AAN?$AAT?$AAE?$AAR?$AAL?$AAE?$AAA?$AAV?$AAI?$AAN?$AAG?$AA?5?$AA?$DN?$AA?5?$AA?$CF?$AAd@ 000272a8     SMDK6410_MLC_FIL:S3C6410_FIL.obj
 0001:000162f0       ??_C@_1DG@DABJGJKM@?$AA?$FL?$AAF?$AAI?$AAL?$AA?$FN?$AA?5?$AA?5?$AAS?$AAU?$AAB?$AAL?$AAK?$AAS?$AA_?$AAT?$AAO?$AAT?$AAA?$AAL?$AA?5?$AA?$DN?$AA?5?$AA?$CF?$AAd?$AA?$AN?$AA?6?$AA?$AA@ 000272f0     SMDK6410_MLC_FIL:S3C6410_FIL.obj
 0001:00016328       ??_C@_1DM@KGHOMEEF@?$AA?$FL?$AAF?$AAI?$AAL?$AA?$FN?$AA?5?$AA?5?$AAP?$AAA?$AAG?$AAE?$AAS?$AA_?$AAP?$AAE?$AAR?$AA_?$AAS?$AAU?$AAB?$AAL?$AAK?$AA?5?$AA?$DN?$AA?5?$AA?$CF?$AAd?$AA?$AN?$AA?6?$AA?$AA@ 00027328     SMDK6410_MLC_FIL:S3C6410_FIL.obj
 0001:00016364       ??_C@_1DK@BGGFHHOB@?$AA?$FL?$AAF?$AAI?$AAL?$AA?$FN?$AA?5?$AA?5?$AAP?$AAA?$AAG?$AAE?$AAS?$AA_?$AAP?$AAE?$AAR?$AA_?$AAB?$AAA?$AAN?$AAK?$AA?5?$AA?$DN?$AA?5?$AA?$CF?$AAd?$AA?$AN?$AA?6?$AA?$AA@ 00027364     SMDK6410_MLC_FIL:S3C6410_FIL.obj
 0001:000163a0       ??_C@_1DO@GGHPKID@?$AA?$FL?$AAF?$AAI?$AAL?$AA?$FN?$AA?5?$AA?5?$AAS?$AAE?$AAC?$AAT?$AAO?$AAR?$AAS?$AA_?$AAP?$AAE?$AAR?$AA_?$AAP?$AAA?$AAG?$AAE?$AA?5?$AA?$DN?$AA?5?$AA?$CF?$AAd?$AA?$AN?$AA?6?$AA?$AA@ 000273a0     SMDK6410_MLC_FIL:S3C6410_FIL.obj
 0001:000163e0       ??_C@_1EC@CIJFGGEF@?$AA?$FL?$AAF?$AAI?$AAL?$AA?$FN?$AA?5?$AA?5?$AAS?$AAE?$AAC?$AAT?$AAO?$AAR?$AAS?$AA_?$AAP?$AAE?$AAR?$AA_?$AAS?$AAU?$AAP?$AAA?$AAG?$AAE?$AA?5?$AA?$DN?$AA?5?$AA?$CF?$AAd?$AA?$AN?$AA?6@ 000273e0     SMDK6410_MLC_FIL:S3C6410_FIL.obj
 0001:00016428       ??_C@_1EA@GKDHDLEP@?$AA?$FL?$AAF?$AAI?$AAL?$AA?$FN?$AA?5?$AA?5?$AAS?$AAE?$AAC?$AAT?$AAO?$AAR?$AAS?$AA_?$AAP?$AAE?$AAR?$AA_?$AAS?$AAU?$AAB?$AAL?$AAK?$AA?5?$AA?$DN?$AA?5?$AA?$CF?$AAd?$AA?$AN?$AA?6?$AA?$AA@ 00027428     SMDK6410_MLC_FIL:S3C6410_FIL.obj
 0001:00016468       ??_C@_1EE@LKLGOPBM@?$AA?$FL?$AAF?$AAI?$AAL?$AA?$FN?$AA?5?$AA?5?$AAB?$AAY?$AAT?$AAE?$AAS?$AA_?$AAP?$AAE?$AAR?$AA_?$AAM?$AAA?$AAI?$AAN?$AA_?$AAP?$AAA?$AAG?$AAE?$AA?5?$AA?$DN?$AA?5?$AA?$CF?$AAd?$AA?$AN@ 00027468     SMDK6410_MLC_FIL:S3C6410_FIL.obj
 0001:000164b0       ??_C@_1EG@GCAJKEGF@?$AA?$FL?$AAF?$AAI?$AAL?$AA?$FN?$AA?5?$AA?5?$AAB?$AAY?$AAT?$AAE?$AAS?$AA_?$AAP?$AAE?$AAR?$AA_?$AAS?$AAP?$AAA?$AAR?$AAE?$AA_?$AAP?$AAA?$AAG?$AAE?$AA?5?$AA?$DN?$AA?5?$AA?$CF?$AAd@ 000274b0     SMDK6410_MLC_FIL:S3C6410_FIL.obj
 0001:000164f8       ??_C@_1EK@MACJIHD@?$AA?$FL?$AAF?$AAI?$AAL?$AA?$FN?$AA?5?$AA?5?$AAB?$AAY?$AAT?$AAE?$AAS?$AA_?$AAP?$AAE?$AAR?$AA_?$AAS?$AAP?$AAA?$AAR?$AAE?$AA_?$AAS?$AAU?$AAP?$AAA?$AAG?$AAE?$AA?5?$AA?$DN?$AA?5@ 000274f8     SMDK6410_MLC_FIL:S3C6410_FIL.obj
 0001:00016548       ??_C@_1EC@GOBFDIAO@?$AA?$FL?$AAF?$AAI?$AAL?$AA?$FN?$AA?5?$AA?5?$AAU?$AAS?$AAE?$AAR?$AA_?$AAS?$AAE?$AAC?$AAT?$AAO?$AAR?$AAS?$AA_?$AAT?$AAO?$AAT?$AAA?$AAL?$AA?5?$AA?$DN?$AA?5?$AA?$CF?$AAd?$AA?$AN?$AA?6@ 00027548     SMDK6410_MLC_FIL:S3C6410_FIL.obj
 0001:0001658c       ??_C@_1DI@MEEAIBAA@?$AA?$FL?$AAF?$AAI?$AAL?$AA?$FN?$AA?5?$AA?5?$AAA?$AAD?$AAD?$AAR?$AAE?$AAS?$AAS?$AA_?$AAC?$AAY?$AAC?$AAL?$AAE?$AA?5?$AA?$DN?$AA?5?$AA?$CF?$AAd?$AA?$AN?$AA?6?$AA?$AA@ 0002758c     SMDK6410_MLC_FIL:S3C6410_FIL.obj
 0001:000165c8       ??_C@_1FC@BPMMOOEC@?$AA?$FL?$AAF?$AAI?$AAL?$AA?$FN?$AA?5?$AA?$CD?$AA?$CD?$AA?$CD?$AA?$CD?$AA?$CD?$AA?$CD?$AA?$CD?$AA?$CD?$AA?$CD?$AA?$CD?$AA?$CD?$AA?$CD?$AA?$CD?$AA?$CD?$AA?$CD?$AA?$CD?$AA?$CD?$AA?$CD?$AA?$CD?$AA?$CD?$AA?$CD?$AA?$CD?$AA?$CD?$AA?$CD?$AA?$CD?$AA?$CD@ 000275c8     SMDK6410_MLC_FIL:S3C6410_FIL.obj
 0001:0001661c       ??_C@_1DG@GKJDMIBD@?$AA?$FL?$AAI?$AAN?$AAF?$AAO?$AA?$FN?$AA?5?$AAW?$AAM?$AAR?$AA_?$AAA?$AAR?$AAE?$AAA?$AA_?$AAS?$AAI?$AAZ?$AAE?$AA?5?$AA?$DN?$AA?5?$AA?$CF?$AAd?$AA?6?$AA?$AA@ 0002761c     SMDK6410_MLC_FIL:S3C6410_FIL.obj
 0001:00016658       ??_C@_1EA@BBGCECPH@?$AA?$FL?$AAI?$AAN?$AAF?$AAO?$AA?$FN?$AA?5?$AAS?$AAP?$AAE?$AAC?$AAI?$AAA?$AAL?$AA_?$AAA?$AAR?$AAE?$AAA?$AA_?$AAS?$AAT?$AAA?$AAR?$AAT?$AA?5?$AA?$DN?$AA?5?$AA?$CF?$AAd?$AA?6?$AA?$AA@ 00027658     SMDK6410_MLC_FIL:S3C6410_FIL.obj
 0001:00016698       ??_C@_1DO@MPCMCDAL@?$AA?$FL?$AAI?$AAN?$AAF?$AAO?$AA?$FN?$AA?5?$AAS?$AAP?$AAE?$AAC?$AAI?$AAA?$AAL?$AA_?$AAA?$AAR?$AAE?$AAA?$AA_?$AAS?$AAI?$AAZ?$AAE?$AA?5?$AA?$DN?$AA?5?$AA?$CF?$AAd?$AA?6?$AA?$AA@ 00027698     SMDK6410_MLC_FIL:S3C6410_FIL.obj
 0001:000166d8       ??_C@_1DI@MMFEPIEN@?$AA?$FL?$AAI?$AAN?$AAF?$AAO?$AA?$FN?$AA?5?$AAV?$AAF?$AAL?$AA_?$AAA?$AAR?$AAE?$AAA?$AA_?$AAS?$AAT?$AAA?$AAR?$AAT?$AA?5?$AA?$DN?$AA?5?$AA?$CF?$AAd?$AA?6?$AA?$AA@ 000276d8     SMDK6410_MLC_FIL:S3C6410_FIL.obj
 0001:00016710       ??_C@_1DG@GHHPIECL@?$AA?$FL?$AAI?$AAN?$AAF?$AAO?$AA?$FN?$AA?5?$AAV?$AAF?$AAL?$AA_?$AAA?$AAR?$AAE?$AAA?$AA_?$AAS?$AAI?$AAZ?$AAE?$AA?5?$AA?$DN?$AA?5?$AA?$CF?$AAd?$AA?6?$AA?$AA@ 00027710     SMDK6410_MLC_FIL:S3C6410_FIL.obj
 0001:00016748       ??_C@_1EI@HHLBHMBH@?$AA?$FL?$AAI?$AAN?$AAF?$AAO?$AA?$FN?$AA?5?$AAV?$AAF?$AAL?$AA_?$AAI?$AAN?$AAF?$AAO?$AA_?$AAS?$AAE?$AAC?$AAT?$AAI?$AAO?$AAN?$AA_?$AAS?$AAT?$AAA?$AAR?$AAT?$AA?5?$AA?$DN?$AA?5@ 00027748     SMDK6410_MLC_FIL:S3C6410_FIL.obj
 0001:00016790       ??_C@_1EG@KKEHBNCJ@?$AA?$FL?$AAI?$AAN?$AAF?$AAO?$AA?$FN?$AA?5?$AAV?$AAF?$AAL?$AA_?$AAI?$AAN?$AAF?$AAO?$AA_?$AAS?$AAE?$AAC?$AAT?$AAI?$AAO?$AAN?$AA_?$AAS?$AAI?$AAZ?$AAE?$AA?5?$AA?$DN?$AA?5?$AA?$CF@ 00027790     SMDK6410_MLC_FIL:S3C6410_FIL.obj
 0001:000167d8       ??_C@_1EI@BPLKPFHE@?$AA?$FL?$AAI?$AAN?$AAF?$AAO?$AA?$FN?$AA?5?$AAR?$AAE?$AAS?$AAE?$AAR?$AAV?$AAE?$AAD?$AA_?$AAS?$AAE?$AAC?$AAT?$AAI?$AAO?$AAN?$AA_?$AAS?$AAT?$AAA?$AAR?$AAT?$AA?5?$AA?$DN?$AA?5@ 000277d8     SMDK6410_MLC_FIL:S3C6410_FIL.obj
 0001:00016820       ??_C@_1EG@EGHPCHIJ@?$AA?$FL?$AAI?$AAN?$AAF?$AAO?$AA?$FN?$AA?5?$AAR?$AAE?$AAS?$AAE?$AAR?$AAV?$AAE?$AAD?$AA_?$AAS?$AAE?$AAC?$AAT?$AAI?$AAO?$AAN?$AA_?$AAS?$AAI?$AAZ?$AAE?$AA?5?$AA?$DN?$AA?5?$AA?$CF@ 00027820     SMDK6410_MLC_FIL:S3C6410_FIL.obj
 0001:00016868       ??_C@_1EI@DJONIMDO@?$AA?$FL?$AAI?$AAN?$AAF?$AAO?$AA?$FN?$AA?5?$AAF?$AAT?$AAL?$AA_?$AAI?$AAN?$AAF?$AAO?$AA_?$AAS?$AAE?$AAC?$AAT?$AAI?$AAO?$AAN?$AA_?$AAS?$AAT?$AAA?$AAR?$AAT?$AA?5?$AA?$DN?$AA?5@ 00027868     SMDK6410_MLC_FIL:S3C6410_FIL.obj
 0001:000168b0       ??_C@_1EG@LBHGOOBE@?$AA?$FL?$AAI?$AAN?$AAF?$AAO?$AA?$FN?$AA?5?$AAF?$AAT?$AAL?$AA_?$AAI?$AAN?$AAF?$AAO?$AA_?$AAS?$AAE?$AAC?$AAT?$AAI?$AAO?$AAN?$AA_?$AAS?$AAI?$AAZ?$AAE?$AA?5?$AA?$DN?$AA?5?$AA?$CF@ 000278b0     SMDK6410_MLC_FIL:S3C6410_FIL.obj
 0001:000168f8       ??_C@_1DM@MOFMKLGJ@?$AA?$FL?$AAI?$AAN?$AAF?$AAO?$AA?$FN?$AA?5?$AAL?$AAO?$AAG?$AA_?$AAS?$AAE?$AAC?$AAT?$AAI?$AAO?$AAN?$AA_?$AAS?$AAI?$AAZ?$AAE?$AA?5?$AA?$DN?$AA?5?$AA?$CF?$AAd?$AA?6?$AA?$AA@ 000278f8     SMDK6410_MLC_FIL:S3C6410_FIL.obj
 0001:00016938       ??_C@_1EA@CNMDIDGF@?$AA?$FL?$AAI?$AAN?$AAF?$AAO?$AA?$FN?$AA?5?$AAF?$AAR?$AAE?$AAE?$AA_?$AAS?$AAE?$AAC?$AAT?$AAI?$AAO?$AAN?$AA_?$AAS?$AAT?$AAA?$AAR?$AAT?$AA?5?$AA?$DN?$AA?5?$AA?$CF?$AAd?$AA?6?$AA?$AA@ 00027938     SMDK6410_MLC_FIL:S3C6410_FIL.obj
 0001:00016978       ??_C@_1DO@INBOHFCI@?$AA?$FL?$AAI?$AAN?$AAF?$AAO?$AA?$FN?$AA?5?$AAF?$AAR?$AAE?$AAE?$AA_?$AAS?$AAE?$AAC?$AAT?$AAI?$AAO?$AAN?$AA_?$AAS?$AAI?$AAZ?$AAE?$AA?5?$AA?$DN?$AA?5?$AA?$CF?$AAd?$AA?6?$AA?$AA@ 00027978     SMDK6410_MLC_FIL:S3C6410_FIL.obj
 0001:000169b8       ??_C@_1DI@HNOOKFJE@?$AA?$FL?$AAI?$AAN?$AAF?$AAO?$AA?$FN?$AA?5?$AAF?$AAR?$AAE?$AAE?$AA_?$AAL?$AAI?$AAS?$AAT?$AA_?$AAS?$AAI?$AAZ?$AAE?$AA?5?$AA?$DN?$AA?5?$AA?$CF?$AAd?$AA?6?$AA?$AA@ 000279b8     SMDK6410_MLC_FIL:S3C6410_FIL.obj
 0001:000169f0       ??_C@_1EA@JDMKJIMP@?$AA?$FL?$AAI?$AAN?$AAF?$AAO?$AA?$FN?$AA?5?$AAD?$AAA?$AAT?$AAA?$AA_?$AAS?$AAE?$AAC?$AAT?$AAI?$AAO?$AAN?$AA_?$AAS?$AAT?$AAA?$AAR?$AAT?$AA?5?$AA?$DN?$AA?5?$AA?$CF?$AAd?$AA?6?$AA?$AA@ 000279f0     SMDK6410_MLC_FIL:S3C6410_FIL.obj
 0001:00016a30       ??_C@_1DO@OLDHANOL@?$AA?$FL?$AAI?$AAN?$AAF?$AAO?$AA?$FN?$AA?5?$AAD?$AAA?$AAT?$AAA?$AA_?$AAS?$AAE?$AAC?$AAT?$AAI?$AAO?$AAN?$AA_?$AAS?$AAI?$AAZ?$AAE?$AA?5?$AA?$DN?$AA?5?$AA?$CF?$AAd?$AA?6?$AA?$AA@ 00027a30     SMDK6410_MLC_FIL:S3C6410_FIL.obj
 0001:00016a70       ??_C@_1DI@KOHNLABC@?$AA?$FL?$AAI?$AAN?$AAF?$AAO?$AA?$FN?$AA?5?$AAF?$AAT?$AAL?$AA_?$AAA?$AAR?$AAE?$AAA?$AA_?$AAS?$AAT?$AAA?$AAR?$AAT?$AA?5?$AA?$DN?$AA?5?$AA?$CF?$AAd?$AA?6?$AA?$AA@ 00027a70     SMDK6410_MLC_FIL:S3C6410_FIL.obj
 0001:00016aa8       ??_C@_1DG@OGEKIJDN@?$AA?$FL?$AAI?$AAN?$AAF?$AAO?$AA?$FN?$AA?5?$AAF?$AAT?$AAL?$AA_?$AAA?$AAR?$AAE?$AAA?$AA_?$AAS?$AAI?$AAZ?$AAE?$AA?5?$AA?$DN?$AA?5?$AA?$CF?$AAd?$AA?6?$AA?$AA@ 00027aa8     SMDK6410_MLC_FIL:S3C6410_FIL.obj
 0001:00016ae0       ??_C@_1EI@PPEIEHDD@?$AA?$FL?$AAF?$AAI?$AAL?$AA?$FN?$AA?$CL?$AA?$CL?$AAN?$AAA?$AAN?$AAD?$AA_?$AAE?$AAr?$AAa?$AAs?$AAe?$AA?$CI?$AA?$CF?$AAd?$AA?0?$AA?5?$AA?$CF?$AAd?$AA?0?$AA?5?$AA0?$AAx?$AA?$CF?$AA0?$AA2?$AAx@ 00027ae0     SMDK6410_MLC_FIL:S3C6410_FIL.obj
 0001:00016b28       ??_C@_1FO@CKMBMALN@?$AA?$FL?$AAF?$AAI?$AAL?$AA?3?$AAE?$AAR?$AAR?$AA?$FN?$AA?9?$AA?9?$AAN?$AAA?$AAN?$AAD?$AA_?$AAE?$AAr?$AAa?$AAs?$AAe?$AA?$CI?$AA?$CJ?$AA?5?$AA?3?$AA?5?$AAP?$AAa?$AAr?$AAa?$AAm?$AAe@ 00027b28     SMDK6410_MLC_FIL:S3C6410_FIL.obj
 0001:00016b88       ??_C@_1IG@OKFOCCOE@?$AA?$FL?$AAF?$AAI?$AAL?$AA?$FN?$AA?5?$AAR?$AAe?$AAa?$AAd?$AA_?$AAS?$AAe?$AAc?$AAt?$AAo?$AAr?$AA?$CI?$AA?$CJ?$AA?5?$AA?3?$AA?5?$AAE?$AAC?$AAC?$AA?5?$AAC?$AAo?$AAr?$AAr?$AAe?$AAc@ 00027b88     SMDK6410_MLC_FIL:S3C6410_FIL.obj
 0001:00016c10       ??_C@_1JC@GPAHGLAE@?$AA?$FL?$AAF?$AAI?$AAL?$AA?3?$AAE?$AAR?$AAR?$AA?$FN?$AA?5?$AAR?$AAe?$AAa?$AAd?$AA_?$AAS?$AAe?$AAc?$AAt?$AAo?$AAr?$AA?$CI?$AA?$CJ?$AA?5?$AA?3?$AA?5?$AAE?$AAC?$AAC?$AA?5?$AAU?$AAn@ 00027c10     SMDK6410_MLC_FIL:S3C6410_FIL.obj
 0001:00016ca8       ??_C@_1HK@NOHLHGAF@?$AA?$FL?$AAF?$AAI?$AAL?$AA?3?$AAE?$AAR?$AAR?$AA?$FN?$AA?5?$AAL?$AAs?$AAn?$AA?$CI?$AA0?$AAx?$AA?$CF?$AAx?$AA?$CJ?$AA?5?$AA?9?$AA?$DO?$AA?5?$AAL?$AAb?$AAn?$AA?$CI?$AA0?$AAx?$AA?$CF?$AAx?$AA?$CJ@ 00027ca8     SMDK6410_MLC_FIL:S3C6410_FIL.obj
 0001:00016d28       ??_C@_1HK@LOMMPAHI@?$AA?$FL?$AAF?$AAI?$AAL?$AA?3?$AAE?$AAR?$AAR?$AA?$FN?$AA?5?$AAV?$AAp?$AAn?$AA?$CI?$AA0?$AAx?$AA?$CF?$AAx?$AA?$CJ?$AA?5?$AA?9?$AA?$DO?$AA?5?$AAP?$AAb?$AAn?$AA?$CI?$AA0?$AAx?$AA?$CF?$AAx?$AA?$CJ@ 00027d28     SMDK6410_MLC_FIL:S3C6410_FIL.obj
 0001:00016da8       ??_C@_1FE@LDNGFNAO@?$AAR?$AAe?$AAa?$AAd?$AA_?$AAS?$AAe?$AAc?$AAt?$AAo?$AAr?$AA?3?$AA?5?$AAE?$AAC?$AAC?$AA?5?$AAD?$AAe?$AAc?$AAo?$AAd?$AAi?$AAn?$AAg?$AA?5?$AAT?$AAi?$AAm?$AAe?$AAo?$AAu@ 00027da8     SMDK6410_MLC_FIL:S3C6410_FIL.obj
 0001:00016e00       ??_C@_1JG@DGCDNBE@?$AA?$FL?$AAF?$AAI?$AAL?$AA?$FN?$AA?5?$AAR?$AAe?$AAa?$AAd?$AA_?$AAS?$AAe?$AAc?$AAt?$AAo?$AAr?$AA_?$AA8?$AAB?$AAi?$AAt?$AAE?$AAC?$AAC?$AA?$CI?$AA?$CJ?$AA?5?$AA?3?$AA?5?$AAE?$AAC@ 00027e00     SMDK6410_MLC_FIL:S3C6410_FIL.obj
 0001:00016e98       ??_C@_1KC@MAEGEDNN@?$AA?$FL?$AAF?$AAI?$AAL?$AA?3?$AAE?$AAR?$AAR?$AA?$FN?$AA?5?$AAR?$AAe?$AAa?$AAd?$AA_?$AAS?$AAe?$AAc?$AAt?$AAo?$AAr?$AA_?$AA8?$AAB?$AAi?$AAt?$AAE?$AAC?$AAC?$AA?$CI?$AA?$CJ?$AA?5@ 00027e98     SMDK6410_MLC_FIL:S3C6410_FIL.obj
 0001:00016f40       ??_C@_1IC@PJADENIF@?$AA?$FL?$AAF?$AAI?$AAL?$AA?$FN?$AA?5?$AAR?$AAe?$AAa?$AAd?$AA_?$AAS?$AAp?$AAa?$AAr?$AAe?$AA?$CI?$AA?$CJ?$AA?5?$AA?3?$AA?5?$AAE?$AAC?$AAC?$AA?5?$AAC?$AAo?$AAr?$AAr?$AAe?$AAc?$AAt@ 00027f40     SMDK6410_MLC_FIL:S3C6410_FIL.obj
 0001:00016fc8       ??_C@_1IO@ECNGMHON@?$AA?$FL?$AAF?$AAI?$AAL?$AA?3?$AAE?$AAR?$AAR?$AA?$FN?$AA?5?$AAR?$AAe?$AAa?$AAd?$AA_?$AAS?$AAp?$AAa?$AAr?$AAe?$AA?$CI?$AA?$CJ?$AA?5?$AA?3?$AA?5?$AAE?$AAC?$AAC?$AA?5?$AAU?$AAn?$AAc@ 00027fc8     SMDK6410_MLC_FIL:S3C6410_FIL.obj
 0001:00017058       ??_C@_1FE@DFFMLNLL@?$AAR?$AAe?$AAa?$AAd?$AA_?$AAS?$AAp?$AAa?$AAr?$AAe?$AA3?$AA?3?$AA?5?$AAE?$AAC?$AAC?$AA?5?$AAD?$AAe?$AAc?$AAo?$AAd?$AAi?$AAn?$AAg?$AA?5?$AAT?$AAi?$AAm?$AAe?$AAo?$AAu@ 00028058     SMDK6410_MLC_FIL:S3C6410_FIL.obj
 0001:000170b0       ??_C@_1IO@JDLMCBGB@?$AA?$FL?$AAF?$AAI?$AAL?$AA?3?$AAE?$AAR?$AAR?$AA?$FN?$AA?5?$AAR?$AAe?$AAa?$AAd?$AA_?$AAS?$AAp?$AAa?$AAr?$AAe?$AA?$CI?$AA?$CJ?$AA?5?$AA?3?$AA?5?$AAT?$AAr?$AAy?$AA?5?$AAE?$AAC?$AAC@ 000280b0     SMDK6410_MLC_FIL:S3C6410_FIL.obj
 0001:00017140       ??_C@_1IK@FMKCJPHK@?$AA?$FL?$AAF?$AAI?$AAL?$AA?3?$AAE?$AAR?$AAR?$AA?$FN?$AA?5?$AAR?$AAe?$AAa?$AAd?$AA_?$AAS?$AAp?$AAa?$AAr?$AAe?$AA?$CI?$AA?$CJ?$AA?5?$AA?3?$AA?5?$AAT?$AAr?$AAy?$AA?5?$AAE?$AAC?$AAC@ 00028140     SMDK6410_MLC_FIL:S3C6410_FIL.obj
 0001:000171d0       ??_C@_1KO@HHBDBPEK@?$AA?$FL?$AAF?$AAI?$AAL?$AA?3?$AAE?$AAR?$AAR?$AA?$FN?$AA?5?$AAR?$AAe?$AAa?$AAd?$AA_?$AAS?$AAp?$AAa?$AAr?$AAe?$AA?$CI?$AA?$CJ?$AA?5?$AA?3?$AA?5?$AAE?$AAC?$AAC?$AA?5?$AAU?$AAn?$AAc@ 000281d0     SMDK6410_MLC_FIL:S3C6410_FIL.obj
 0001:00017280       ??_C@_1FE@PAEHOANA@?$AAR?$AAe?$AAa?$AAd?$AA_?$AAS?$AAp?$AAa?$AAr?$AAe?$AA1?$AA?3?$AA?5?$AAE?$AAC?$AAC?$AA?5?$AAD?$AAe?$AAc?$AAo?$AAd?$AAi?$AAn?$AAg?$AA?5?$AAT?$AAi?$AAm?$AAe?$AAo?$AAu@ 00028280     SMDK6410_MLC_FIL:S3C6410_FIL.obj
 0001:000172d8       ??_C@_1KA@PLHADOJK@?$AA?$FL?$AAF?$AAI?$AAL?$AA?3?$AAE?$AAR?$AAR?$AA?$FN?$AA?5?$AAR?$AAe?$AAa?$AAd?$AA_?$AAS?$AAp?$AAa?$AAr?$AAe?$AA_?$AAS?$AAe?$AAp?$AAa?$AAr?$AAa?$AAt?$AAe?$AA?$CI?$AA?$CJ?$AA?5@ 000282d8     SMDK6410_MLC_FIL:S3C6410_FIL.obj
 0001:00017378       ??_C@_1JC@NNMLJBDP@?$AA?$FL?$AAF?$AAI?$AAL?$AA?$FN?$AA?5?$AAR?$AAe?$AAa?$AAd?$AA_?$AAS?$AAp?$AAa?$AAr?$AAe?$AA_?$AA8?$AAB?$AAi?$AAt?$AAE?$AAC?$AAC?$AA?$CI?$AA?$CJ?$AA?5?$AA?3?$AA?5?$AAE?$AAC?$AAC@ 00028378     SMDK6410_MLC_FIL:S3C6410_FIL.obj
 0001:00017410       ??_C@_1JO@LOBCFCCD@?$AA?$FL?$AAF?$AAI?$AAL?$AA?3?$AAE?$AAR?$AAR?$AA?$FN?$AA?5?$AAR?$AAe?$AAa?$AAd?$AA_?$AAS?$AAp?$AAa?$AAr?$AAe?$AA_?$AA8?$AAB?$AAi?$AAt?$AAE?$AAC?$AAC?$AA?$CI?$AA?$CJ?$AA?5?$AA?3@ 00028410     SMDK6410_MLC_FIL:S3C6410_FIL.obj
 0001:000174b0       ??_C@_1JO@GPHILEKP@?$AA?$FL?$AAF?$AAI?$AAL?$AA?3?$AAE?$AAR?$AAR?$AA?$FN?$AA?5?$AAR?$AAe?$AAa?$AAd?$AA_?$AAS?$AAp?$AAa?$AAr?$AAe?$AA_?$AA8?$AAB?$AAi?$AAt?$AAE?$AAC?$AAC?$AA?$CI?$AA?$CJ?$AA?5?$AA?3@ 000284b0     SMDK6410_MLC_FIL:S3C6410_FIL.obj
 0001:00017550       ??_C@_1JK@NLHGNAKP@?$AA?$FL?$AAF?$AAI?$AAL?$AA?3?$AAE?$AAR?$AAR?$AA?$FN?$AA?5?$AAR?$AAe?$AAa?$AAd?$AA_?$AAS?$AAp?$AAa?$AAr?$AAe?$AA_?$AA8?$AAB?$AAi?$AAt?$AAE?$AAC?$AAC?$AA?$CI?$AA?$CJ?$AA?5?$AA?3@ 00028550     SMDK6410_MLC_FIL:S3C6410_FIL.obj
 0001:000175f0       ??_C@_1LO@GNFIKEHD@?$AA?$FL?$AAF?$AAI?$AAL?$AA?3?$AAE?$AAR?$AAR?$AA?$FN?$AA?5?$AAR?$AAe?$AAa?$AAd?$AA_?$AAS?$AAp?$AAa?$AAr?$AAe?$AA_?$AA8?$AAB?$AAi?$AAt?$AAE?$AAC?$AAC?$AA?$CI?$AA?$CJ?$AA?5?$AA?3@ 000285f0     SMDK6410_MLC_FIL:S3C6410_FIL.obj
 0001:000176b0       ??_C@_1FM@IOCLNPI@?$AA?$FL?$AAF?$AAI?$AAL?$AA?3?$AAE?$AAR?$AAR?$AA?$FN?$AA?9?$AA?9?$AAN?$AAA?$AAN?$AAD?$AA_?$AAR?$AAe?$AAa?$AAd?$AA?$CI?$AA?$CJ?$AA?5?$AA?3?$AA?5?$AAP?$AAa?$AAr?$AAa?$AAm?$AAe?$AAt@ 000286b0     SMDK6410_MLC_FIL:S3C6410_FIL.obj
 0001:00017710       ??_C@_1KK@IGCCOMB@?$AA?$FL?$AAF?$AAI?$AAL?$AA?3?$AAE?$AAR?$AAR?$AA?$FN?$AA?9?$AA?9?$AAN?$AAA?$AAN?$AAD?$AA_?$AAR?$AAe?$AAa?$AAd?$AA?$CI?$AA?$CJ?$AA?5?$AA?3?$AA?5?$AAU?$AAn?$AAc?$AAo?$AAr?$AAr?$AAe@ 00028710     SMDK6410_MLC_FIL:S3C6410_FIL.obj
 0001:000177bc       ??_C@_1DA@IOEBNEIP@?$AA?$FL?$AAF?$AAI?$AAL?$AA?$FN?$AA?5?$AAN?$AAA?$AAN?$AAD?$AA_?$AAW?$AAr?$AAi?$AAt?$AAe?$AA?$CI?$AA0?$AAx?$AA?$CF?$AAx?$AA?$CJ?$AA?6?$AA?$AA@ 000287bc     SMDK6410_MLC_FIL:S3C6410_FIL.obj
 0001:000177f0       ??_C@_1EO@LOGCDDAN@?$AA?$FL?$AAF?$AAI?$AAL?$AA?$FN?$AA?5?$AAN?$AAA?$AAN?$AAD?$AA_?$AAR?$AAe?$AAa?$AAd?$AA?5?$AAT?$AAr?$AAy?$AA?5?$AAt?$AAo?$AA?5?$AAr?$AAe?$AAa?$AAd?$AA?5?$AAa?$AAg?$AAa?$AAi@ 000287f0     SMDK6410_MLC_FIL:S3C6410_FIL.obj
 0001:000178d0       ??_C@_1KM@KCGKHFEF@?$AA?$FL?$AAF?$AAT?$AAL?$AA?3?$AAE?$AAR?$AAR?$AA?$FN?$AA?5?$AA_?$AAI?$AAn?$AAi?$AAt?$AAB?$AAa?$AAc?$AAk?$AAu?$AAp?$AAL?$AAB?$AAC?$AAx?$AAt?$AA?5?$AA?9?$AA?5?$AAt?$AAh?$AAe@ 000288d0     FTL_MLC:FTLInterface.obj
 0001:00017980       ??_C@_1IO@GFKENNEG@?$AAF?$AA?3?$AA?2?$AAW?$AAI?$AAN?$AAC?$AAE?$AA6?$AA0?$AA0?$AA?2?$AAP?$AAL?$AAA?$AAT?$AAF?$AAO?$AAR?$AAM?$AA?2?$AAS?$AAM?$AAD?$AAK?$AA6?$AA4?$AA1?$AA0?$AA_?$AAP?$AAM@ 00028980     FTL_MLC:FTLInterface.obj
 0001:00017a10       ??_C@_1LG@PHLMDACE@?$AA?$FL?$AAF?$AAT?$AAL?$AA?3?$AAE?$AAR?$AAR?$AA?$FN?$AA?5?$AA_?$AAS?$AAe?$AAt?$AAR?$AAu?$AAn?$AAM?$AAa?$AAr?$AAk?$AA?5?$AA?9?$AA?5?$AAt?$AAh?$AAe?$AAr?$AAe?$AA?5?$AAi?$AAs@ 00028a10     FTL_MLC:FTLInterface.obj
 0001:00017ac8       ??_C@_1HK@GJJKNNGC@?$AA?$FL?$AAF?$AAT?$AAL?$AA?3?$AAE?$AAR?$AAR?$AA?$FN?$AA?5?$AA_?$AAS?$AAe?$AAt?$AAR?$AAu?$AAn?$AAM?$AAa?$AAr?$AAk?$AA?5?$AA?9?$AA?5?$AAt?$AAh?$AAe?$AAr?$AAe?$AA?5?$AAi?$AAs@ 00028ac8     FTL_MLC:FTLInterface.obj
 0001:00017b48       ??_C@_1HM@GOGDIJFJ@?$AA?$FL?$AAF?$AAT?$AAL?$AA?3?$AAE?$AAR?$AAR?$AA?$FN?$AA?5?$AA_?$AAS?$AAe?$AAt?$AAL?$AAP?$AAO?$AAf?$AAf?$AAs?$AAe?$AAt?$AA?5?$AA?9?$AA?5?$AAt?$AAh?$AAe?$AAr?$AAe?$AA?5?$AAi@ 00028b48     FTL_MLC:FTLInterface.obj
 0001:00017bc8       ??_C@_1HA@KDBKKPHP@?$AA?$FL?$AAF?$AAT?$AAL?$AA?3?$AAE?$AAR?$AAR?$AA?$FN?$AA?5?$AA_?$AAS?$AAe?$AAa?$AAr?$AAc?$AAh?$AAF?$AAT?$AAL?$AAC?$AAx?$AAt?$AA?5?$AA?9?$AA?5?$AAt?$AAh?$AAe?$AAr?$AAe?$AA?5@ 00028bc8     FTL_MLC:FTLInterface.obj
 0001:00017c38       ??_C@_1GO@OOFNDONO@?$AA?$FL?$AAF?$AAT?$AAL?$AA?3?$AAE?$AAR?$AAR?$AA?$FN?$AA?5?$AA_?$AAS?$AAe?$AAa?$AAr?$AAc?$AAh?$AAF?$AAT?$AAL?$AAC?$AAx?$AAt?$AA?5?$AA?9?$AA?5?$AAt?$AAh?$AAe?$AAr?$AAe?$AA?5@ 00028c38     FTL_MLC:FTLInterface.obj
 0001:00017ca8       ??_C@_1IK@LPACFJCK@?$AA?$FL?$AAF?$AAT?$AAL?$AA?3?$AAE?$AAR?$AAR?$AA?$FN?$AA?5?$AA_?$AAS?$AAc?$AAa?$AAn?$AAL?$AAo?$AAg?$AAS?$AAe?$AAc?$AAt?$AAi?$AAo?$AAn?$AA?5?$AA?9?$AA?5?$AAn?$AAL?$AAb?$AAn@ 00028ca8     FTL_MLC:FTLInterface.obj
 0001:00017d38       ??_C@_1KA@KBGGBIOM@?$AA?$FL?$AAF?$AAT?$AAL?$AA?3?$AAE?$AAR?$AAR?$AA?$FN?$AA?5?$AA_?$AAG?$AAe?$AAt?$AAF?$AAr?$AAe?$AAe?$AAV?$AAb?$AA?$CI?$AAp?$AAF?$AAT?$AAL?$AAC?$AAx?$AAt?$AA?9?$AA?$DO?$AAn?$AAN@ 00028d38     FTL_MLC:FTLInterface.obj
 0001:00017dd8       ??_C@_1JE@LNLFFJKB@?$AA?$FL?$AAF?$AAT?$AAL?$AA?3?$AAE?$AAR?$AAR?$AA?$FN?$AA?5?$AA_?$AAG?$AAe?$AAt?$AAF?$AAr?$AAe?$AAe?$AAV?$AAb?$AA?$CI?$AAn?$AAF?$AAr?$AAe?$AAe?$AAV?$AAb?$AAL?$AAi?$AAs?$AAt@ 00028dd8     FTL_MLC:FTLInterface.obj
 0001:00017e70       ??_C@_1GM@FOFPFEIN@?$AA?$FL?$AAF?$AAT?$AAL?$AA?3?$AAE?$AAR?$AAR?$AA?$FN?$AA?5?$AA_?$AAG?$AAe?$AAt?$AAF?$AAr?$AAe?$AAe?$AAV?$AAb?$AA?5?$AA?9?$AA?5?$AAt?$AAh?$AAe?$AAr?$AAe?$AA?5?$AAi?$AAs?$AA?5@ 00028e70     FTL_MLC:FTLInterface.obj
 0001:00017ee0       ??_C@_1JO@JPPKFIFN@?$AA?$FL?$AAF?$AAT?$AAL?$AA?3?$AAE?$AAR?$AAR?$AA?$FN?$AA?5?$AA_?$AAG?$AAe?$AAt?$AAF?$AAr?$AAe?$AAe?$AAV?$AAb?$AA?$CI?$AAn?$AAR?$AAe?$AAt?$AAV?$AAb?$AAn?$AA?$CI?$AA?$CF?$AAd?$AA?$CJ@ 00028ee0     FTL_MLC:FTLInterface.obj
 0001:00017f80       ??_C@_1LA@NBFPFOOH@?$AA?$FL?$AAF?$AAT?$AAL?$AA?3?$AAE?$AAR?$AAR?$AA?$FN?$AA?5?$AA_?$AAG?$AAe?$AAt?$AAF?$AAr?$AAe?$AAe?$AAV?$AAb?$AA?$CI?$AAn?$AAF?$AAr?$AAe?$AAe?$AAI?$AAd?$AAx?$AA?$CI?$AA?$CF?$AAd@ 00028f80     FTL_MLC:FTLInterface.obj
 0001:00018030       ??_C@_1KA@ELMIFBAK@?$AA?$FL?$AAF?$AAT?$AAL?$AA?3?$AAE?$AAR?$AAR?$AA?$FN?$AA?5?$AA_?$AAS?$AAe?$AAt?$AAF?$AAr?$AAe?$AAe?$AAV?$AAb?$AA?$CI?$AAp?$AAF?$AAT?$AAL?$AAC?$AAx?$AAt?$AA?9?$AA?$DO?$AAn?$AAN@ 00029030     FTL_MLC:FTLInterface.obj
 0001:000180d0       ??_C@_1JE@GKBDGLBI@?$AA?$FL?$AAF?$AAT?$AAL?$AA?3?$AAE?$AAR?$AAR?$AA?$FN?$AA?5?$AA_?$AAS?$AAe?$AAt?$AAF?$AAr?$AAe?$AAe?$AAV?$AAb?$AA?$CI?$AAn?$AAF?$AAr?$AAe?$AAe?$AAV?$AAb?$AAL?$AAi?$AAs?$AAt@ 000290d0     FTL_MLC:FTLInterface.obj
 0001:00018168       ??_C@_1JI@JNEBHLFA@?$AA?$FL?$AAF?$AAT?$AAL?$AA?3?$AAE?$AAR?$AAR?$AA?$FN?$AA?5?$AA_?$AAS?$AAe?$AAt?$AAF?$AAr?$AAe?$AAe?$AAV?$AAb?$AA?$CI?$AAn?$AAV?$AAb?$AAn?$AA?$CI?$AA?$CF?$AAd?$AA?$CJ?$AA?5?$AAa?$AAg@ 00029168     FTL_MLC:FTLInterface.obj
 0001:00018200       ??_C@_1FC@GFNLJDAL@?$AA?$FL?$AAF?$AAT?$AAL?$AA?3?$AAE?$AAR?$AAR?$AA?$FN?$AA?5?$AA_?$AAI?$AAn?$AAi?$AAt?$AAL?$AAo?$AAg?$AAC?$AAx?$AAt?$AA?$CI?$AA?$CB?$AA?$CI?$AAp?$AAL?$AAo?$AAg?$AA?5?$AA?$CB?$AA?$DN?$AA?5@ 00029200     FTL_MLC:FTLInterface.obj
 0001:00018258       ??_C@_1GM@NBPFHOOJ@?$AA?$FL?$AAF?$AAT?$AAL?$AA?3?$AAE?$AAR?$AAR?$AA?$FN?$AA?5?$AA_?$AAC?$AAo?$AAn?$AAv?$AAe?$AAr?$AAt?$AAL?$AA2?$AAV?$AA?5?$AA?9?$AA?5?$AAt?$AAh?$AAe?$AAr?$AAe?$AA?5?$AAi?$AAs@ 00029258     FTL_MLC:FTLInterface.obj
 0001:000182c8       ??_C@_1IM@MMFGAICC@?$AA?$FL?$AAF?$AAT?$AAL?$AA?3?$AAE?$AAR?$AAR?$AA?$FN?$AA?5?$AA_?$AAC?$AAo?$AAn?$AAv?$AAe?$AAr?$AAt?$AAL?$AA2?$AAV?$AA?$CI?$AAn?$AAM?$AAa?$AAp?$AAI?$AAd?$AAx?$AA?$CI?$AA?$CF?$AAd@ 000292c8     FTL_MLC:FTLInterface.obj
 0001:00018358       ??_C@_1JE@JKFHBDLL@?$AA?$FL?$AAV?$AAF?$AAL?$AA?3?$AAE?$AAR?$AAR?$AA?$FN?$AA?5?$AA_?$AAG?$AAe?$AAt?$AAE?$AAC?$AA?$CI?$AAn?$AAL?$AAb?$AAn?$AA?3?$AA?$CF?$AAd?$AA?$CJ?$AA?5?$AAi?$AAn?$AAp?$AAu?$AAt?$AA?5@ 00029358     FTL_MLC:FTLInterface.obj
 0001:000183f0       ??_C@_1JK@MJHPHOIK@?$AA?$FL?$AAF?$AAT?$AAL?$AA?3?$AAE?$AAR?$AAR?$AA?$FN?$AA?5?$AA_?$AAM?$AAo?$AAd?$AAi?$AAf?$AAy?$AAM?$AAa?$AAp?$AA?5?$AA?9?$AA?5?$AAn?$AAV?$AAb?$AAn?$AA?$CI?$AA?$CF?$AAd?$AA?$CJ?$AA?5@ 000293f0     FTL_MLC:FTLInterface.obj
 0001:00018490       ??_C@_1IG@HMPJLBJJ@?$AA?$FL?$AAF?$AAT?$AAL?$AA?3?$AAE?$AAR?$AAR?$AA?$FN?$AA?5?$AA_?$AAM?$AAo?$AAd?$AAi?$AAf?$AAy?$AAM?$AAa?$AAp?$AA?5?$AA?9?$AA?5?$AAn?$AAL?$AAB?$AAI?$AAd?$AAx?$AA?$CI?$AA?$CF?$AAd@ 00029490     FTL_MLC:FTLInterface.obj
 0001:00018518       ??_C@_1JA@FFAEOPKJ@?$AA?$FL?$AAF?$AAT?$AAL?$AA?3?$AAE?$AAR?$AAR?$AA?$FN?$AA?5?$AA_?$AAM?$AAo?$AAd?$AAi?$AAf?$AAy?$AAR?$AAe?$AAc?$AAl?$AAa?$AAi?$AAm?$AAM?$AAa?$AAp?$AA?5?$AA?9?$AA?5?$AAn?$AAL@ 00029518     FTL_MLC:FTLInterface.obj
 0001:000185a8       ??_C@_1JG@MNOBCNBK@?$AA?$FL?$AAF?$AAT?$AAL?$AA?3?$AAE?$AAR?$AAR?$AA?$FN?$AA?5?$AA_?$AAM?$AAo?$AAd?$AAi?$AAf?$AAy?$AAR?$AAe?$AAc?$AAl?$AAa?$AAi?$AAm?$AAM?$AAa?$AAp?$AA?5?$AA?9?$AA?5?$AAn?$AAM@ 000295a8     FTL_MLC:FTLInterface.obj
 0001:00018640       ??_C@_1IK@CADLEFIB@?$AA?$FL?$AAF?$AAT?$AAL?$AA?3?$AAE?$AAR?$AAR?$AA?$FN?$AA?5?$AA_?$AAM?$AAo?$AAd?$AAi?$AAf?$AAy?$AAE?$AAC?$AAT?$AAb?$AAl?$AA?5?$AA?9?$AA?5?$AAn?$AAE?$AAC?$AAI?$AAd?$AAx?$AA?$CI@ 00029640     FTL_MLC:FTLInterface.obj
 0001:000186d0       ??_C@_1GE@EAMDDJHK@?$AA?$FL?$AAV?$AAF?$AAL?$AA?3?$AAE?$AAR?$AAR?$AA?$FN?$AA?5?$AA_?$AAM?$AAo?$AAd?$AAi?$AAf?$AAy?$AAE?$AAC?$AAT?$AAb?$AAl?$AA?$CI?$AAn?$AAV?$AAb?$AAn?$AA?3?$AA?$CF?$AAd?$AA?$CJ?$AA?5@ 000296d0     FTL_MLC:FTLInterface.obj
 0001:00018738       ??_C@_1HG@LMIDHDPC@?$AA?$FL?$AAF?$AAT?$AAL?$AA?3?$AAE?$AAR?$AAR?$AA?$FN?$AA?5?$AA_?$AAD?$AAo?$AAS?$AAi?$AAm?$AAp?$AAl?$AAe?$AAM?$AAe?$AAr?$AAg?$AAe?$AA?5?$AA?9?$AA?5?$AAt?$AAh?$AAe?$AAr?$AAe@ 00029738     FTL_MLC:FTLInterface.obj
 0001:000187b0       ??_C@_1GO@MJAEFECB@?$AA?$FL?$AAF?$AAT?$AAL?$AA?3?$AAE?$AAR?$AAR?$AA?$FN?$AA?5?$AA_?$AAD?$AAo?$AAS?$AAi?$AAm?$AAp?$AAl?$AAe?$AAM?$AAe?$AAr?$AAg?$AAe?$AA?5?$AA?9?$AA?5?$AAt?$AAh?$AAe?$AAr?$AAe@ 000297b0     FTL_MLC:FTLInterface.obj
 0001:00018820       ??_C@_1HC@LHOIFKKK@?$AA?$FL?$AAF?$AAT?$AAL?$AA?3?$AAE?$AAR?$AAR?$AA?$FN?$AA?5?$AA_?$AAD?$AAo?$AAS?$AAi?$AAm?$AAp?$AAl?$AAe?$AAM?$AAe?$AAr?$AAg?$AAe?$AA?5?$AA?9?$AA?5?$AAt?$AAh?$AAe?$AAr?$AAe@ 00029820     FTL_MLC:FTLInterface.obj
 0001:00018898       ??_C@_1HA@POLGGKMM@?$AA?$FL?$AAF?$AAT?$AAL?$AA?3?$AAE?$AAR?$AAR?$AA?$FN?$AA?5?$AA_?$AAD?$AAo?$AAS?$AAi?$AAm?$AAp?$AAl?$AAe?$AAM?$AAe?$AAr?$AAg?$AAe?$AA?5?$AA?9?$AA?5?$AAt?$AAh?$AAe?$AAr?$AAe@ 00029898     FTL_MLC:FTLInterface.obj
 0001:00018908       ??_C@_1LI@LFPPDAEN@?$AA?$FL?$AAF?$AAT?$AAL?$AA?3?$AAE?$AAR?$AAR?$AA?$FN?$AA?5?$AA_?$AAD?$AAo?$AAS?$AAi?$AAm?$AAp?$AAl?$AAe?$AAM?$AAe?$AAr?$AAg?$AAe?$AA?5?$AA?9?$AA?5?$AAt?$AAh?$AAe?$AAr?$AAe@ 00029908     FTL_MLC:FTLInterface.obj
 0001:000189c0       ??_C@_1HK@OLBJCDM@?$AA?$FL?$AAF?$AAT?$AAL?$AA?3?$AAE?$AAR?$AAR?$AA?$FN?$AA?5?$AA_?$AAD?$AAo?$AAS?$AAi?$AAm?$AAp?$AAl?$AAe?$AAM?$AAe?$AAr?$AAg?$AAe?$AA?5?$AA?9?$AA?5?$AAt?$AAh?$AAe?$AAr?$AAe@ 000299c0     FTL_MLC:FTLInterface.obj
 0001:00018a40       ??_C@_1HG@OBJLABAD@?$AA?$FL?$AAF?$AAT?$AAL?$AA?3?$AAE?$AAR?$AAR?$AA?$FN?$AA?5?$AA_?$AAD?$AAo?$AAS?$AAi?$AAm?$AAp?$AAl?$AAe?$AAM?$AAe?$AAr?$AAg?$AAe?$AA?5?$AA?9?$AA?5?$AAt?$AAh?$AAe?$AAr?$AAe@ 00029a40     FTL_MLC:FTLInterface.obj
 0001:00018ab8       ??_C@_1IA@KEGLOGNO@?$AA?$FL?$AAF?$AAT?$AAL?$AA?3?$AAE?$AAR?$AAR?$AA?$FN?$AA?5?$AA_?$AAD?$AAo?$AAS?$AAi?$AAm?$AAp?$AAl?$AAe?$AAM?$AAe?$AAr?$AAg?$AAe?$AA?5?$AA?9?$AA?5?$AAt?$AAh?$AAe?$AAr?$AAe@ 00029ab8     FTL_MLC:FTLInterface.obj
 0001:00018b38       ??_C@_1HI@IJOBDGHN@?$AA?$FL?$AAF?$AAT?$AAL?$AA?3?$AAE?$AAR?$AAR?$AA?$FN?$AA?5?$AA_?$AAD?$AAo?$AAS?$AAi?$AAm?$AAp?$AAl?$AAe?$AAM?$AAe?$AAr?$AAg?$AAe?$AA?5?$AA?9?$AA?5?$AAt?$AAh?$AAe?$AAr?$AAe@ 00029b38     FTL_MLC:FTLInterface.obj
 0001:00018bb0       ??_C@_1IM@MNNNCFND@?$AA?$FL?$AAF?$AAT?$AAL?$AA?3?$AAE?$AAR?$AAR?$AA?$FN?$AA?5?$AA_?$AAD?$AAo?$AAS?$AAi?$AAm?$AAp?$AAl?$AAe?$AAM?$AAe?$AAr?$AAg?$AAe?$AA?5?$AA?9?$AA?5?$AAt?$AAh?$AAe?$AAr?$AAe@ 00029bb0     FTL_MLC:FTLInterface.obj
 0001:00018c3c       ??_C@_1DK@JNMKBGND@?$AA?$FL?$AAF?$AAT?$AAL?$AAC?$AAx?$AAt?$AA?$FN?$AA?5?$AAn?$AAO?$AAS?$AAS?$AAc?$AAa?$AAn?$AAC?$AAn?$AAt?$AA?5?$AA?$DN?$AA?5?$AA0?$AAx?$AA?$CF?$AAx?$AA?$AN?$AA?6?$AA?$AA@ 00029c3c     FTL_MLC:FTLInterface.obj
 0001:00018c78       ??_C@_1DK@KHCDBBKH@?$AA?$FL?$AAF?$AAT?$AAL?$AAC?$AAx?$AAt?$AA?$FN?$AA?5?$AAn?$AAF?$AAS?$AAS?$AAc?$AAa?$AAn?$AAC?$AAn?$AAt?$AA?5?$AA?$DN?$AA?5?$AA0?$AAx?$AA?$CF?$AAx?$AA?$AN?$AA?6?$AA?$AA@ 00029c78     FTL_MLC:FTLInterface.obj
 0001:00018cb8       ??_C@_1HM@DDJBBEPJ@?$AA?$FL?$AAF?$AAT?$AAL?$AAC?$AAx?$AAt?$AA?$FN?$AA?5?$AA?$DN?$AA?$DN?$AA?$DN?$AA?$DN?$AA?$DN?$AA?$DN?$AA?$DN?$AA?$DN?$AA?$DN?$AA?$DN?$AA?$DN?$AA?$DN?$AA?$DN?$AA?$DN?$AA?$DN?$AA?$DN?$AA?$DN?$AA?$DN?$AA?$DN?$AA?$DN?$AA?$DN?$AA?$DN?$AA?$DN@ 00029cb8     FTL_MLC:FTLInterface.obj
 0001:00018d34       ??_C@_1CO@JJPAOBE@?$AA?$FL?$AAF?$AAT?$AAL?$AAC?$AAx?$AAt?$AA?$FN?$AA?5?$AAa?$AAM?$AAa?$AAp?$AAO?$AAf?$AAf?$AAs?$AAe?$AAt?$AA?5?$AA?$DN?$AA?5?$AA?$AA@ 00029d34     FTL_MLC:FTLInterface.obj
 0001:00018d64       ??_C@_1CI@JBEHAGOO@?$AA?$FL?$AAF?$AAT?$AAL?$AAC?$AAx?$AAt?$AA?$FN?$AA?5?$AAa?$AAM?$AAa?$AAp?$AAV?$AAb?$AAn?$AA?5?$AA?$DN?$AA?5?$AA?$AA@ 00029d64     FTL_MLC:FTLInterface.obj
 0001:00018d8c       ??_C@_1CM@OACBDKMN@?$AA?$FL?$AAF?$AAT?$AAL?$AAC?$AAx?$AAt?$AA?$FN?$AA?5?$AAa?$AAB?$AAa?$AAk?$AAL?$AAo?$AAg?$AAE?$AAC?$AA?5?$AA?$DN?$AA?5?$AA?$AA@ 00029d8c     FTL_MLC:FTLInterface.obj
 0001:00018db8       ??_C@_1CO@FJKILDCC@?$AA?$FL?$AAF?$AAT?$AAL?$AAC?$AAx?$AAt?$AA?$FN?$AA?5?$AAa?$AAB?$AAa?$AAk?$AAL?$AAo?$AAg?$AAV?$AAb?$AAn?$AA?5?$AA?$DN?$AA?5?$AA?$AA@ 00029db8     FTL_MLC:FTLInterface.obj
 0001:00018de8       ??_C@_1CG@BAAABKIJ@?$AA?$FL?$AAF?$AAT?$AAL?$AAC?$AAx?$AAt?$AA?$FN?$AA?5?$AAa?$AAL?$AAo?$AAg?$AAE?$AAC?$AA?5?$AA?$DN?$AA?5?$AA?$AA@ 00029de8     FTL_MLC:FTLInterface.obj
 0001:00018e10       ??_C@_1CI@ECFGAPDN@?$AA?$FL?$AAF?$AAT?$AAL?$AAC?$AAx?$AAt?$AA?$FN?$AA?5?$AAa?$AAL?$AAo?$AAg?$AAL?$AAb?$AAn?$AA?5?$AA?$DN?$AA?5?$AA?$AA@ 00029e10     FTL_MLC:FTLInterface.obj
 0001:00018e38       ??_C@_1CI@PGNDOJMK@?$AA?$FL?$AAF?$AAT?$AAL?$AAC?$AAx?$AAt?$AA?$FN?$AA?5?$AAa?$AAL?$AAo?$AAg?$AAV?$AAb?$AAn?$AA?5?$AA?$DN?$AA?5?$AA?$AA@ 00029e38     FTL_MLC:FTLInterface.obj
 0001:00018e60       ??_C@_1CM@NNFINHJ@?$AA?$FL?$AAF?$AAT?$AAL?$AAC?$AAx?$AAt?$AA?$FN?$AA?5?$AAa?$AAF?$AAr?$AAe?$AAe?$AAV?$AAb?$AAE?$AAC?$AA?5?$AA?$DN?$AA?5?$AA?$AA@ 00029e60     FTL_MLC:FTLInterface.obj
 0001:00018e8c       ??_C@_1CA@NMAFDOBB@?$AA?$FL?$AA0?$AAx?$AA?$CF?$AAx?$AA?$FN?$AA?5?$AA?$DN?$AA?5?$AA0?$AAx?$AA?$CF?$AAx?$AA?0?$AA?5?$AA?$AA@ 00029e8c     FTL_MLC:FTLInterface.obj
 0001:00018eb0       ??_C@_1HM@OBLODMKP@?$AA?6?$AA?$FL?$AAF?$AAT?$AAL?$AAC?$AAx?$AAt?$AA?$FN?$AA?5?$AA?$DN?$AA?$DN?$AA?$DN?$AA?$DN?$AA?$DN?$AA?$DN?$AA?$DN?$AA?$DN?$AA?$DN?$AA?$DN?$AA?$DN?$AA?$DN?$AA?$DN?$AA?$DN?$AA?$DN?$AA?$DN?$AA?$DN?$AA?$DN?$AA?$DN?$AA?$DN?$AA?$DN?$AA?$DN@ 00029eb0     FTL_MLC:FTLInterface.obj
 0001:00018f2c       ??_C@_1CO@NOMFHCOC@?$AA?$FL?$AAF?$AAT?$AAL?$AAC?$AAx?$AAt?$AA?$FN?$AA?5?$AAn?$AAA?$AAg?$AAe?$AA?5?$AA?$DN?$AA?5?$AA0?$AAx?$AA?$CF?$AAx?$AA?$AN?$AA?6?$AA?$AA@ 00029f2c     FTL_MLC:FTLInterface.obj
 0001:00018f5c       ??_C@_1DG@DFOKEPBE@?$AA?$FL?$AAF?$AAT?$AAL?$AAC?$AAx?$AAt?$AA?$FN?$AA?5?$AAn?$AAI?$AAd?$AAl?$AAe?$AAV?$AAb?$AAn?$AA?5?$AA?$DN?$AA?5?$AA0?$AAx?$AA?$CF?$AAx?$AA?$AN?$AA?6?$AA?$AA@ 00029f5c     FTL_MLC:FTLInterface.obj
 0001:00018f94       ??_C@_1DK@INAOEBLA@?$AA?$FL?$AAF?$AAT?$AAL?$AAC?$AAx?$AAt?$AA?$FN?$AA?5?$AAn?$AAI?$AAd?$AAl?$AAe?$AAV?$AAb?$AAn?$AAE?$AAC?$AA?5?$AA?$DN?$AA?5?$AA0?$AAx?$AA?$CF?$AAx?$AA?$AN?$AA?6?$AA?$AA@ 00029f94     FTL_MLC:FTLInterface.obj
 0001:00018fd0       ??_C@_1EA@LLLIMCHB@?$AA?$FL?$AAF?$AAT?$AAL?$AAC?$AAx?$AAt?$AA?$FN?$AA?5?$AAn?$AAC?$AAa?$AAc?$AAh?$AAe?$AAd?$AAM?$AAa?$AAp?$AAI?$AAd?$AAx?$AA?5?$AA?$DN?$AA?5?$AA0?$AAx?$AA?$CF?$AAx?$AA?$AN?$AA?6?$AA?$AA@ 00029fd0     FTL_MLC:FTLInterface.obj
 0001:00019010       ??_C@_1DO@IHBKGANJ@?$AA?$FL?$AAF?$AAT?$AAL?$AAC?$AAx?$AAt?$AA?$FN?$AA?5?$AAn?$AAN?$AAu?$AAm?$AAO?$AAf?$AAF?$AAr?$AAe?$AAe?$AAV?$AAb?$AA?5?$AA?$DN?$AA?5?$AA0?$AAx?$AA?$CF?$AAx?$AA?$AN?$AA?6?$AA?$AA@ 0002a010     FTL_MLC:FTLInterface.obj
 0001:00019050       ??_C@_1EE@BJAHJECK@?$AA?$FL?$AAF?$AAT?$AAL?$AAC?$AAx?$AAt?$AA?$FN?$AA?5?$AAn?$AAF?$AAr?$AAe?$AAe?$AAV?$AAb?$AAL?$AAi?$AAs?$AAt?$AAT?$AAa?$AAi?$AAl?$AA?5?$AA?$DN?$AA?5?$AA0?$AAx?$AA?$CF?$AAx?$AA?$AN@ 0002a050     FTL_MLC:FTLInterface.obj
 0001:00019098       ??_C@_1EI@LHAFGKCM@?$AA?$FL?$AAF?$AAT?$AAL?$AAC?$AAx?$AAt?$AA?$FN?$AA?5?$AAn?$AAW?$AAe?$AAa?$AAr?$AAL?$AAe?$AAv?$AAe?$AAl?$AAC?$AAo?$AAu?$AAn?$AAt?$AAe?$AAr?$AA?5?$AA?$DN?$AA?5?$AA0?$AAx?$AA?$CF@ 0002a098     FTL_MLC:FTLInterface.obj
 0001:000190e0       ??_C@_1FA@JMDBENFI@?$AA?$FL?$AAF?$AAT?$AAL?$AAC?$AAx?$AAt?$AA?$FN?$AA?5?$AAn?$AAM?$AAe?$AAt?$AAa?$AAW?$AAe?$AAa?$AAr?$AAL?$AAe?$AAv?$AAe?$AAl?$AAC?$AAo?$AAu?$AAn?$AAt?$AAe?$AAr?$AA?5?$AA?$DN@ 0002a0e0     FTL_MLC:FTLInterface.obj
 0001:00019130       ??_C@_1DA@IOJAJJGE@?$AA?$FL?$AAF?$AAT?$AAL?$AAC?$AAx?$AAt?$AA?$FN?$AA?5?$AAa?$AAF?$AAr?$AAe?$AAe?$AAV?$AAb?$AAL?$AAi?$AAs?$AAt?$AA?5?$AA?$DN?$AA?5?$AA?$AA@ 0002a130     FTL_MLC:FTLInterface.obj
 0001:00019160       ??_C@_1GK@OKGHJGEN@?$AA?$FL?$AAF?$AAT?$AAL?$AA?3?$AAE?$AAR?$AAR?$AA?$FN?$AA?5?$AAF?$AAT?$AAL?$AA_?$AAF?$AAo?$AAr?$AAm?$AAa?$AAt?$AA?5?$AA?9?$AA?5?$AAt?$AAh?$AAe?$AAr?$AAe?$AA?5?$AAi?$AAs?$AA?5@ 0002a160     FTL_MLC:FTLInterface.obj
 0001:000191d0       ??_C@_1GM@FLLFLPEJ@?$AA?$FL?$AAF?$AAT?$AAL?$AA?3?$AAE?$AAR?$AAR?$AA?$FN?$AA?5?$AAF?$AAT?$AAL?$AA_?$AAF?$AAo?$AAr?$AAm?$AAa?$AAt?$AA?5?$AA?9?$AA?5?$AAt?$AAh?$AAe?$AAr?$AAe?$AA?5?$AAi?$AAs?$AA?5@ 0002a1d0     FTL_MLC:FTLInterface.obj
 0001:00019240       ??_C@_1GI@POKNIEFN@?$AA?$FL?$AAF?$AAT?$AAL?$AA?3?$AAE?$AAR?$AAR?$AA?$FN?$AA?5?$AAF?$AAT?$AAL?$AA_?$AAF?$AAo?$AAr?$AAm?$AAa?$AAt?$AA?5?$AA?9?$AA?5?$AAt?$AAh?$AAe?$AAr?$AAe?$AA?5?$AAi?$AAs?$AA?5@ 0002a240     FTL_MLC:FTLInterface.obj
 0001:000192a8       ??_C@_1FI@PPGCNEFL@?$AA?$FL?$AAF?$AAT?$AAL?$AA?3?$AAE?$AAR?$AAR?$AA?$FN?$AA?5?$AAF?$AAT?$AAL?$AA_?$AAI?$AAn?$AAi?$AAt?$AA?5?$AA?9?$AA?5?$AAS?$AAY?$AAS?$AA_?$AAI?$AAD?$AA?5?$AAC?$AAh?$AAe?$AAc@ 0002a2a8     FTL_MLC:FTLInterface.obj
 0001:00019300       ??_C@_1EI@PDDEKBJJ@?$AA?$FL?$AAF?$AAT?$AAL?$AA?3?$AAI?$AAN?$AAF?$AA?$FN?$AA?5?$AAF?$AAT?$AAL?$AA_?$AAI?$AAn?$AAi?$AAt?$AA?5?$AA?9?$AA?5?$AAS?$AAY?$AAS?$AA_?$AAI?$AAD?$AA?$CI?$AA0?$AAx?$AA?$CF?$AAx@ 0002a300     FTL_MLC:FTLInterface.obj
 0001:00019348       ??_C@_1JA@BBHFKLLI@?$AA?$FL?$AAF?$AAT?$AAL?$AA?3?$AAE?$AAR?$AAR?$AA?$FN?$AA?5?$AAF?$AAT?$AAL?$AA_?$AAI?$AAn?$AAi?$AAt?$AA?5?$AA?9?$AA?5?$AAt?$AAh?$AAe?$AAr?$AAe?$AA?5?$AAi?$AAs?$AA?5?$AAn?$AAo@ 0002a348     FTL_MLC:FTLInterface.obj
 0001:000193d8       ??_C@_1JA@OBIOHNHA@?$AA?$FL?$AAF?$AAT?$AAL?$AA?3?$AAE?$AAR?$AAR?$AA?$FN?$AA?5?$AAF?$AAT?$AAL?$AA_?$AAI?$AAn?$AAi?$AAt?$AA?5?$AA?9?$AA?5?$AAt?$AAh?$AAe?$AAr?$AAe?$AA?5?$AAi?$AAs?$AA?5?$AAn?$AAo@ 0002a3d8     FTL_MLC:FTLInterface.obj
 0001:00019468       ??_C@_1IK@OGJOFONO@?$AA?$FL?$AAF?$AAT?$AAL?$AA?3?$AAE?$AAR?$AAR?$AA?$FN?$AA?5?$AAF?$AAT?$AAL?$AA_?$AAI?$AAn?$AAi?$AAt?$AA?5?$AA?9?$AA?5?$AAt?$AAh?$AAe?$AAr?$AAe?$AA?5?$AAi?$AAs?$AA?5?$AAn?$AAo@ 0002a468     FTL_MLC:FTLInterface.obj
 0001:000194f8       ??_C@_1IM@EMEPOACP@?$AA?$FL?$AAF?$AAT?$AAL?$AA?3?$AAE?$AAR?$AAR?$AA?$FN?$AA?5?$AAF?$AAT?$AAL?$AA_?$AAI?$AAn?$AAi?$AAt?$AA?5?$AA?9?$AA?5?$AAt?$AAh?$AAe?$AAr?$AAe?$AA?5?$AAi?$AAs?$AA?5?$AAn?$AAo@ 0002a4f8     FTL_MLC:FTLInterface.obj
 0001:00019588       ??_C@_1EE@EPMEOAJP@?$AAF?$AAT?$AAL?$AA_?$AAv?$AA1?$AA?4?$AA1?$AA0?$AA_?$AAW?$AAC?$AAE?$AA6?$AA?4?$AA0?$AA_?$AAS?$AA3?$AAC?$AA6?$AA4?$AA1?$AA0?$AA_?$AA2?$AA0?$AA1?$AA0?$AA0?$AA5?$AA1@ 0002a588     FTL_MLC:FTLInterface.obj
 0001:000195cc       ??_C@_1DK@NLCAIKPM@?$AA?$FL?$AAF?$AAT?$AAL?$AA?3?$AAI?$AAN?$AAF?$AA?$FN?$AA?5?$AAF?$AAT?$AAL?$AA?5?$AAV?$AAe?$AAr?$AAs?$AAi?$AAo?$AAn?$AA?5?$AA?$DN?$AA?5?$AA?$CF?$AAs?$AA?$AN?$AA?6?$AA?$AA@ 0002a5cc     FTL_MLC:FTLInterface.obj
 0001:00019608       ??_C@_1DE@FMFKMBLL@?$AA?$FL?$AAF?$AAT?$AAL?$AA?3?$AA?5?$AAI?$AAN?$AA?$FN?$AA?5?$AA?$CL?$AA?$CL?$AAF?$AAT?$AAL?$AA_?$AAC?$AAl?$AAo?$AAs?$AAe?$AA?$CI?$AA?$CJ?$AA?$AN?$AA?6?$AA?$AA@ 0002a608     FTL_MLC:FTLInterface.obj
 0001:00019640       ??_C@_1FE@OIHOEHCK@?$AA?$FL?$AAF?$AAT?$AAL?$AA?3?$AAE?$AAR?$AAR?$AA?$FN?$AA?5?$AAt?$AAh?$AAe?$AAr?$AAe?$AA?5?$AAi?$AAs?$AA?5?$AAe?$AAr?$AAr?$AAo?$AAr?$AA?5?$AAo?$AAn?$AA?5?$AA_?$AAG?$AAe?$AAt@ 0002a640     FTL_MLC:FTLInterface.obj
 0001:00019698       ??_C@_1FK@PGMINDO@?$AA?$FL?$AAF?$AAT?$AAL?$AA?3?$AAE?$AAR?$AAR?$AA?$FN?$AA?5?$AAt?$AAh?$AAe?$AAr?$AAe?$AA?5?$AAi?$AAs?$AA?5?$AAe?$AAr?$AAr?$AAo?$AAr?$AA?5?$AAo?$AAn?$AA?5?$AAM?$AAL?$AAC?$AA_@ 0002a698     FTL_MLC:FTLInterface.obj
 0001:000196f8       ??_C@_1HA@EPJHJDFL@?$AA?$FL?$AAF?$AAT?$AAL?$AA?3?$AAE?$AAR?$AAR?$AA?$FN?$AA?5?$AA_?$AAB?$AAa?$AAc?$AAk?$AAu?$AAp?$AAL?$AAS?$AAB?$AA?5?$AAt?$AAh?$AAe?$AAr?$AAe?$AA?5?$AAi?$AAs?$AA?5?$AAe?$AAr@ 0002a6f8     FTL_MLC:FTLInterface.obj
 0001:00019768       ??_C@_1HA@GGGGKNCO@?$AA?$FL?$AAF?$AAT?$AAL?$AA?3?$AAE?$AAR?$AAR?$AA?$FN?$AA?5?$AA_?$AAS?$AAt?$AAo?$AAr?$AAe?$AAF?$AAT?$AAL?$AAC?$AAx?$AAt?$AA?5?$AA?9?$AA?5?$AAt?$AAh?$AAe?$AAr?$AAe?$AA?5?$AAi@ 0002a768     FTL_MLC:FTLInterface.obj
 0001:000197d8       ??_C@_1KC@FNGHMHOC@?$AA?$FL?$AAF?$AAT?$AAL?$AA?3?$AAE?$AAR?$AAR?$AA?$FN?$AA?5?$AA_?$AAS?$AAt?$AAo?$AAr?$AAe?$AAF?$AAT?$AAL?$AAC?$AAx?$AAt?$AA?5?$AA?9?$AA?5?$AAt?$AAh?$AAe?$AAr?$AAe?$AA?5?$AAi@ 0002a7d8     FTL_MLC:FTLInterface.obj
 0001:00019880       ??_C@_1JA@NKNDIEMD@?$AA?$FL?$AAF?$AAT?$AAL?$AA?3?$AAE?$AAR?$AAR?$AA?$FN?$AA?5?$AA_?$AAS?$AAt?$AAo?$AAr?$AAe?$AAF?$AAT?$AAL?$AAC?$AAx?$AAt?$AA?5?$AA?9?$AA?5?$AAt?$AAh?$AAe?$AAr?$AAe?$AA?5?$AAi@ 0002a880     FTL_MLC:FTLInterface.obj
 0001:00019910       ??_C@_1JI@PFFINFPA@?$AA?$FL?$AAF?$AAT?$AAL?$AA?3?$AAE?$AAR?$AAR?$AA?$FN?$AA?5?$AA_?$AAS?$AAt?$AAo?$AAr?$AAe?$AAF?$AAT?$AAL?$AAC?$AAx?$AAt?$AA?$CI?$AAn?$AAC?$AAa?$AAc?$AAh?$AAe?$AAd?$AAM?$AAa@ 0002a910     FTL_MLC:FTLInterface.obj
 0001:000199a8       ??_C@_1IA@FPCKOOGD@?$AA?$FL?$AAF?$AAT?$AAL?$AA?3?$AAE?$AAR?$AAR?$AA?$FN?$AA?5?$AA_?$AAS?$AAt?$AAo?$AAr?$AAe?$AAF?$AAT?$AAL?$AAC?$AAx?$AAt?$AA?$CI?$AAn?$AAC?$AAa?$AAc?$AAh?$AAe?$AAd?$AAM?$AAa@ 0002a9a8     FTL_MLC:FTLInterface.obj
 0001:00019a28       ??_C@_1HE@PNAOEGNJ@?$AA?$FL?$AAF?$AAT?$AAL?$AA?3?$AAE?$AAR?$AAR?$AA?$FN?$AA?5?$AA_?$AAL?$AAo?$AAa?$AAd?$AAF?$AAT?$AAL?$AAC?$AAx?$AAt?$AA?5?$AA?9?$AA?5?$AAt?$AAh?$AAe?$AAr?$AAe?$AA?5?$AAi?$AAs@ 0002aa28     FTL_MLC:FTLInterface.obj
 0001:00019aa0       ??_C@_1HC@PJFIBFOI@?$AA?$FL?$AAF?$AAT?$AAL?$AA?3?$AAE?$AAR?$AAR?$AA?$FN?$AA?5?$AA_?$AAL?$AAo?$AAa?$AAd?$AAF?$AAT?$AAL?$AAC?$AAx?$AAt?$AA?5?$AA?9?$AA?5?$AAt?$AAh?$AAe?$AAr?$AAe?$AA?5?$AAi?$AAs@ 0002aaa0     FTL_MLC:FTLInterface.obj
 0001:00019b18       ??_C@_1GK@GCCAOHEC@?$AA?$FL?$AAF?$AAT?$AAL?$AA?3?$AAE?$AAR?$AAR?$AA?$FN?$AA?5?$AA_?$AAL?$AAo?$AAa?$AAd?$AAF?$AAT?$AAL?$AAC?$AAx?$AAt?$AA?5?$AA?9?$AA?5?$AAt?$AAh?$AAe?$AAr?$AAe?$AA?5?$AAi?$AAs@ 0002ab18     FTL_MLC:FTLInterface.obj
 0001:00019b88       ??_C@_1LC@LPPHHAOJ@?$AA?$FL?$AAF?$AAT?$AAL?$AA?3?$AAE?$AAR?$AAR?$AA?$FN?$AA?5?$AA_?$AAL?$AAo?$AAa?$AAd?$AAF?$AAT?$AAL?$AAC?$AAx?$AAt?$AA?5?$AA?9?$AA?5?$AAt?$AAh?$AAe?$AAr?$AAe?$AA?5?$AAi?$AAs@ 0002ab88     FTL_MLC:FTLInterface.obj
 0001:00019c40       ??_C@_1GC@FMBGDMN@?$AA?$FL?$AAF?$AAT?$AAL?$AA?3?$AAE?$AAR?$AAR?$AA?$FN?$AA?5?$AA_?$AAL?$AAo?$AAa?$AAd?$AAF?$AAT?$AAL?$AAC?$AAx?$AAt?$AA?5?$AA?9?$AA?5?$AAc?$AAo?$AAu?$AAl?$AAd?$AAn?$AA?8?$AAt@ 0002ac40     FTL_MLC:FTLInterface.obj
 0001:00019ca8       ??_C@_1HG@CINPAEIE@?$AA?$FL?$AAF?$AAT?$AAL?$AA?3?$AAE?$AAR?$AAR?$AA?$FN?$AA?5?$AA_?$AAD?$AAo?$AAT?$AAr?$AAi?$AAp?$AAl?$AAe?$AAM?$AAe?$AAr?$AAg?$AAe?$AA?5?$AA?9?$AA?5?$AAt?$AAh?$AAe?$AAr?$AAe@ 0002aca8     FTL_MLC:FTLInterface.obj
 0001:00019d20       ??_C@_1GO@LJINEMCB@?$AA?$FL?$AAF?$AAT?$AAL?$AA?3?$AAE?$AAR?$AAR?$AA?$FN?$AA?5?$AA_?$AAD?$AAo?$AAT?$AAr?$AAi?$AAp?$AAl?$AAe?$AAM?$AAe?$AAr?$AAg?$AAe?$AA?5?$AA?9?$AA?5?$AAt?$AAh?$AAe?$AAr?$AAe@ 0002ad20     FTL_MLC:FTLInterface.obj
 0001:00019d90       ??_C@_1HC@BPJJPKFM@?$AA?$FL?$AAF?$AAT?$AAL?$AA?3?$AAE?$AAR?$AAR?$AA?$FN?$AA?5?$AA_?$AAD?$AAo?$AAT?$AAr?$AAi?$AAp?$AAl?$AAe?$AAM?$AAe?$AAr?$AAg?$AAe?$AA?5?$AA?9?$AA?5?$AAt?$AAh?$AAe?$AAr?$AAe@ 0002ad90     FTL_MLC:FTLInterface.obj
 0001:00019e08       ??_C@_1HA@ONNKICBD@?$AA?$FL?$AAF?$AAT?$AAL?$AA?3?$AAE?$AAR?$AAR?$AA?$FN?$AA?5?$AA_?$AAD?$AAo?$AAT?$AAr?$AAi?$AAp?$AAl?$AAe?$AAM?$AAe?$AAr?$AAg?$AAe?$AA?5?$AA?9?$AA?5?$AAt?$AAh?$AAe?$AAr?$AAe@ 0002ae08     FTL_MLC:FTLInterface.obj
 0001:00019e78       ??_C@_1LI@KMCLDEOC@?$AA?$FL?$AAF?$AAT?$AAL?$AA?3?$AAE?$AAR?$AAR?$AA?$FN?$AA?5?$AA_?$AAD?$AAo?$AAT?$AAr?$AAi?$AAp?$AAl?$AAe?$AAM?$AAe?$AAr?$AAg?$AAe?$AA?5?$AA?9?$AA?5?$AAt?$AAh?$AAe?$AAr?$AAe@ 0002ae78     FTL_MLC:FTLInterface.obj
 0001:00019f30       ??_C@_1HK@PADHFGKM@?$AA?$FL?$AAF?$AAT?$AAL?$AA?3?$AAE?$AAR?$AAR?$AA?$FN?$AA?5?$AA_?$AAD?$AAo?$AAT?$AAr?$AAi?$AAp?$AAl?$AAe?$AAM?$AAe?$AAr?$AAg?$AAe?$AA?5?$AA?9?$AA?5?$AAt?$AAh?$AAe?$AAr?$AAe@ 0002af30     FTL_MLC:FTLInterface.obj
 0001:00019fb0       ??_C@_1HG@HFMHHGHF@?$AA?$FL?$AAF?$AAT?$AAL?$AA?3?$AAE?$AAR?$AAR?$AA?$FN?$AA?5?$AA_?$AAD?$AAo?$AAT?$AAr?$AAi?$AAp?$AAl?$AAe?$AAM?$AAe?$AAr?$AAg?$AAe?$AA?5?$AA?9?$AA?5?$AAt?$AAh?$AAe?$AAr?$AAe@ 0002afb0     FTL_MLC:FTLInterface.obj
 0001:0001a028       ??_C@_1IA@NCPAAJLL@?$AA?$FL?$AAF?$AAT?$AAL?$AA?3?$AAE?$AAR?$AAR?$AA?$FN?$AA?5?$AA_?$AAD?$AAo?$AAT?$AAr?$AAi?$AAp?$AAl?$AAe?$AAM?$AAe?$AAr?$AAg?$AAe?$AA?5?$AA?9?$AA?5?$AAt?$AAh?$AAe?$AAr?$AAe@ 0002b028     FTL_MLC:FTLInterface.obj
 0001:0001a0a8       ??_C@_1HI@DOOFJIMO@?$AA?$FL?$AAF?$AAT?$AAL?$AA?3?$AAE?$AAR?$AAR?$AA?$FN?$AA?5?$AA_?$AAD?$AAo?$AAT?$AAr?$AAi?$AAp?$AAl?$AAe?$AAM?$AAe?$AAr?$AAg?$AAe?$AA?5?$AA?9?$AA?5?$AAt?$AAh?$AAe?$AAr?$AAe@ 0002b0a8     FTL_MLC:FTLInterface.obj
 0001:0001a120       ??_C@_1IM@HDBDKAOL@?$AA?$FL?$AAF?$AAT?$AAL?$AA?3?$AAE?$AAR?$AAR?$AA?$FN?$AA?5?$AA_?$AAD?$AAo?$AAT?$AAr?$AAi?$AAp?$AAl?$AAe?$AAM?$AAe?$AAr?$AAg?$AAe?$AA?5?$AA?9?$AA?5?$AAt?$AAh?$AAe?$AAr?$AAe@ 0002b120     FTL_MLC:FTLInterface.obj
 0001:0001a1b0       ??_C@_1JG@NHODMOIG@?$AA?$FL?$AAF?$AAT?$AAL?$AA?3?$AAE?$AAR?$AAR?$AA?$FN?$AA?5?$AAF?$AAT?$AAL?$AA_?$AAR?$AAe?$AAa?$AAd?$AA?$CI?$AAn?$AAL?$AAs?$AAn?$AA?3?$AA?$CF?$AAd?$AA?0?$AA?5?$AAn?$AAN?$AAu?$AAm@ 0002b1b0     FTL_MLC:FTLInterface.obj
 0001:0001a248       ??_C@_1FO@OFFLKJMB@?$AA?$FL?$AAF?$AAT?$AAL?$AA?3?$AAE?$AAR?$AAR?$AA?$FN?$AA?5?$AA?9?$AA?9?$AAF?$AAT?$AAL?$AA_?$AAR?$AAe?$AAa?$AAd?$AA?$CI?$AAn?$AAL?$AAs?$AAn?$AA?3?$AA?$CF?$AAd?$AA?0?$AA?5?$AAn?$AAN@ 0002b248     FTL_MLC:FTLInterface.obj
 0001:0001a2a8       ??_C@_1GO@EAFGGLPB@?$AA?$FL?$AAF?$AAT?$AAL?$AA?3?$AAE?$AAR?$AAR?$AA?$FN?$AA?5?$AAF?$AAT?$AAL?$AA_?$AAR?$AAe?$AAa?$AAd?$AA?5?$AA?9?$AA?5?$AAt?$AAh?$AAe?$AAr?$AAe?$AA?5?$AAi?$AAs?$AA?5?$AAe?$AAr@ 0002b2a8     FTL_MLC:FTLInterface.obj
 0001:0001a318       ??_C@_1GG@DHFDLCAP@?$AA?$FL?$AAF?$AAT?$AAL?$AA?3?$AAE?$AAR?$AAR?$AA?$FN?$AA?5?$AAF?$AAT?$AAL?$AA_?$AAR?$AAe?$AAa?$AAd?$AA?5?$AA?9?$AA?5?$AAt?$AAh?$AAe?$AAr?$AAe?$AA?5?$AAi?$AAs?$AA?5?$AAe?$AAr@ 0002b318     FTL_MLC:FTLInterface.obj
 0001:0001a380       ??_C@_1GM@PDNCOICF@?$AA?$FL?$AAF?$AAT?$AAL?$AA?3?$AAE?$AAR?$AAR?$AA?$FN?$AA?5?$AAF?$AAT?$AAL?$AA_?$AAR?$AAe?$AAa?$AAd?$AA?5?$AA?9?$AA?5?$AAt?$AAh?$AAe?$AAr?$AAe?$AA?5?$AAi?$AAs?$AA?5?$AAe?$AAr@ 0002b380     FTL_MLC:FTLInterface.obj
 0001:0001a3f0       ??_C@_1FI@DGJEDAJP@?$AA?$FL?$AAF?$AAT?$AAL?$AA?3?$AAE?$AAR?$AAR?$AA?$FN?$AA?5?$AAF?$AAT?$AAL?$AA_?$AAR?$AAe?$AAa?$AAd?$AA?5?$AA?9?$AA?5?$AAp?$AAB?$AAu?$AAf?$AA?5?$AAi?$AAs?$AA?5?$AAn?$AAo?$AAt@ 0002b3f0     FTL_MLC:FTLInterface.obj
 0001:0001a448       ??_C@_1GE@MKEGDKCB@?$AA?$FL?$AAF?$AAT?$AAL?$AA?3?$AAE?$AAR?$AAR?$AA?$FN?$AA?5?$AAF?$AAT?$AAL?$AA_?$AAR?$AAe?$AAa?$AAd?$AA?5?$AA?9?$AA?5?$AAt?$AAh?$AAe?$AAr?$AAe?$AA?5?$AAi?$AAs?$AA?5?$AAe?$AAr@ 0002b448     FTL_MLC:FTLInterface.obj
 0001:0001a4b0       ??_C@_1EK@FPFNIPMI@?$AA?$FL?$AAF?$AAT?$AAL?$AA?3?$AAE?$AAR?$AAR?$AA?$FN?$AA?5?$AAF?$AAT?$AAL?$AA_?$AAR?$AAe?$AAa?$AAd?$AA?5?$AA?9?$AA?5?$AAp?$AAB?$AAu?$AAf?$AA?5?$AA?$DN?$AA?$DN?$AA?5?$AAN?$AAU?$AAL@ 0002b4b0     FTL_MLC:FTLInterface.obj
 0001:0001a500       ??_C@_1FG@ENMCBHPC@?$AA?$FL?$AAF?$AAT?$AAL?$AA?3?$AAE?$AAR?$AAR?$AA?$FN?$AA?5?$AA_?$AAM?$AAa?$AAk?$AAe?$AAL?$AAo?$AAg?$AAM?$AAa?$AAp?$AA?5?$AA?9?$AA?5?$AAN?$AAo?$AAr?$AAm?$AAa?$AAl?$AA?5?$AAP@ 0002b500     FTL_MLC:FTLInterface.obj
 0001:0001a558       ??_C@_1LG@OGCJGEEI@?$AA?$FL?$AAF?$AAT?$AAL?$AA?3?$AAE?$AAR?$AAR?$AA?$FN?$AA?5?$AA_?$AAM?$AAa?$AAk?$AAe?$AAL?$AAo?$AAg?$AAM?$AAa?$AAp?$AA?5?$AA?9?$AA?5?$AA_?$AAG?$AAe?$AAt?$AAB?$AAa?$AAc?$AAk@ 0002b558     FTL_MLC:FTLInterface.obj
 0001:0001a610       ??_C@_1GA@EDKLJLGP@?$AA?$FL?$AAF?$AAT?$AAL?$AA?3?$AAE?$AAR?$AAR?$AA?$FN?$AA?5?$AA_?$AAM?$AAa?$AAk?$AAe?$AAL?$AAo?$AAg?$AAM?$AAa?$AAp?$AA?5?$AA?9?$AA?5?$AAS?$AAu?$AAd?$AAd?$AAe?$AAn?$AA?5?$AAP@ 0002b610     FTL_MLC:FTLInterface.obj
 0001:0001a670       ??_C@_1HI@HJNKFGLM@?$AA?$FL?$AAF?$AAT?$AAL?$AA?3?$AAE?$AAR?$AAR?$AA?$FN?$AA?5?$AA_?$AAM?$AAa?$AAk?$AAe?$AAL?$AAo?$AAg?$AAM?$AAa?$AAp?$AA?5?$AA?9?$AA?5?$AAt?$AAh?$AAe?$AAr?$AAe?$AA?5?$AAi?$AAs@ 0002b670     FTL_MLC:FTLInterface.obj
 0001:0001a6e8       ??_C@_1GO@ICDKGGHC@?$AA?$FL?$AAF?$AAT?$AAL?$AA?3?$AAE?$AAR?$AAR?$AA?$FN?$AA?5?$AA_?$AAM?$AAa?$AAk?$AAe?$AAL?$AAo?$AAg?$AAM?$AAa?$AAp?$AA?5?$AA?9?$AA?5?$AAt?$AAh?$AAe?$AAr?$AAe?$AA?5?$AAi?$AAs@ 0002b6e8     FTL_MLC:FTLInterface.obj
 0001:0001a758       ??_C@_1GM@CNINKGJD@?$AA?$FL?$AAF?$AAT?$AAL?$AA?3?$AAE?$AAR?$AAR?$AA?$FN?$AA?5?$AA_?$AAM?$AAa?$AAk?$AAe?$AAL?$AAo?$AAg?$AAM?$AAa?$AAp?$AA?5?$AA?9?$AA?5?$AAt?$AAh?$AAe?$AAr?$AAe?$AA?5?$AAi?$AAs@ 0002b758     FTL_MLC:FTLInterface.obj
 0001:0001a7c8       ??_C@_1GK@NBIBDLKH@?$AA?$FL?$AAF?$AAT?$AAL?$AA?3?$AAE?$AAR?$AAR?$AA?$FN?$AA?5?$AA_?$AAM?$AAa?$AAk?$AAe?$AAL?$AAo?$AAg?$AAM?$AAa?$AAp?$AA?5?$AA?9?$AA?5?$AAt?$AAh?$AAe?$AAr?$AAe?$AA?5?$AAi?$AAs@ 0002b7c8     FTL_MLC:FTLInterface.obj
 0001:0001a838       ??_C@_1HA@NFKGEPCB@?$AA?$FL?$AAF?$AAT?$AAL?$AA?3?$AAE?$AAR?$AAR?$AA?$FN?$AA?5?$AA_?$AAM?$AAa?$AAk?$AAe?$AAL?$AAo?$AAg?$AAM?$AAa?$AAp?$AA?5?$AA?9?$AA?5?$AAt?$AAh?$AAe?$AAr?$AAe?$AA?5?$AAi?$AAs@ 0002b838     FTL_MLC:FTLInterface.obj
 0001:0001a8a8       ??_C@_1GE@EOMIBIAJ@?$AA?$FL?$AAF?$AAT?$AAL?$AA?3?$AAL?$AAO?$AAG?$AA?$FN?$AA?5?$AA_?$AAM?$AAa?$AAk?$AAe?$AAL?$AAo?$AAg?$AAM?$AAa?$AAp?$AA?5?$AA?9?$AA?5?$AAS?$AAu?$AAd?$AAd?$AAe?$AAn?$AA?5?$AAp@ 0002b8a8     FTL_MLC:FTLInterface.obj
 0001:0001a910       ??_C@_1GO@JMPFOJNJ@?$AA?$FL?$AAF?$AAT?$AAL?$AA?3?$AAE?$AAR?$AAR?$AA?$FN?$AA?5?$AAF?$AAT?$AAL?$AA_?$AAO?$AAp?$AAe?$AAn?$AA?5?$AA?9?$AA?5?$AAt?$AAh?$AAe?$AAr?$AAe?$AA?5?$AAi?$AAs?$AA?5?$AAe?$AAr@ 0002b910     FTL_MLC:FTLInterface.obj
 0001:0001a980       ??_C@_1GG@HDDOPNCM@?$AA?$FL?$AAF?$AAT?$AAL?$AA?3?$AAE?$AAR?$AAR?$AA?$FN?$AA?5?$AAF?$AAT?$AAL?$AA_?$AAO?$AAp?$AAe?$AAn?$AA?5?$AA?9?$AA?5?$AAt?$AAh?$AAe?$AAr?$AAe?$AA?5?$AAi?$AAs?$AA?5?$AAe?$AAr@ 0002b980     FTL_MLC:FTLInterface.obj
 0001:0001a9e8       ??_C@_1GM@GINAOOEI@?$AA?$FL?$AAF?$AAT?$AAL?$AA?3?$AAE?$AAR?$AAR?$AA?$FN?$AA?5?$AAF?$AAT?$AAL?$AA_?$AAO?$AAp?$AAe?$AAn?$AA?5?$AA?9?$AA?5?$AAt?$AAh?$AAe?$AAr?$AAe?$AA?5?$AAi?$AAs?$AA?5?$AAe?$AAr@ 0002b9e8     FTL_MLC:FTLInterface.obj
 0001:0001aa58       ??_C@_1GM@NIIODCAG@?$AA?$FL?$AAF?$AAT?$AAL?$AA?3?$AAE?$AAR?$AAR?$AA?$FN?$AA?5?$AAF?$AAT?$AAL?$AA_?$AAO?$AAp?$AAe?$AAn?$AA?5?$AA?9?$AA?5?$AAt?$AAh?$AAe?$AAr?$AAe?$AA?5?$AAi?$AAs?$AA?5?$AAe?$AAr@ 0002ba58     FTL_MLC:FTLInterface.obj
 0001:0001ab58       ??_C@_1FI@GFHCGAFP@?$AA?$FL?$AAV?$AAF?$AAL?$AA?3?$AAE?$AAR?$AAR?$AA?$FN?$AA?5?$AA_?$AAS?$AAe?$AAt?$AAV?$AAF?$AAL?$AAS?$AAp?$AAa?$AAr?$AAe?$AA?5?$AA?9?$AA?5?$AA?$CB?$AA?$CI?$AAp?$AAS?$AAB?$AAu?$AAf@ 0002bb58     VFL_MLC:VFLInterface.obj
 0001:0001abb0       ??_C@_1IG@KPIACCPP@?$AA?$FL?$AAV?$AAF?$AAL?$AA?3?$AAE?$AAR?$AAR?$AA?$FN?$AA?5?$AA_?$AAG?$AAe?$AAt?$AAR?$AAe?$AAs?$AAe?$AAr?$AAv?$AAe?$AAd?$AAB?$AAl?$AAk?$AA?$CI?$AAn?$AAB?$AAa?$AAn?$AAk?$AA?3@ 0002bbb0     VFL_MLC:VFLInterface.obj
 0001:0001ac38       ??_C@_1IO@GPFFICPB@?$AAF?$AA?3?$AA?2?$AAW?$AAI?$AAN?$AAC?$AAE?$AA6?$AA0?$AA0?$AA?2?$AAP?$AAL?$AAA?$AAT?$AAF?$AAO?$AAR?$AAM?$AA?2?$AAS?$AAM?$AAD?$AAK?$AA6?$AA4?$AA1?$AA0?$AA_?$AAP?$AAM@ 0002bc38     VFL_MLC:VFLInterface.obj
 0001:0001acc8       ??_C@_1JC@CJCNENLB@?$AA?$FL?$AAV?$AAF?$AAL?$AA?3?$AAE?$AAR?$AAR?$AA?$FN?$AA?5?$AA_?$AAR?$AAe?$AAm?$AAa?$AAp?$AAB?$AAa?$AAd?$AAB?$AAl?$AAk?$AA?5?$AA?9?$AA?5?$AA?$CB?$AA?$CI?$AA?$CK?$AAp?$AAD?$AAe?$AAs@ 0002bcc8     VFL_MLC:VFLInterface.obj
 0001:0001ad60       ??_C@_1JC@COEFDJBK@?$AA?$FL?$AAV?$AAF?$AAL?$AA?3?$AAE?$AAR?$AAR?$AA?$FN?$AA?5?$AA_?$AAR?$AAe?$AAm?$AAa?$AAp?$AAB?$AAa?$AAd?$AAB?$AAl?$AAk?$AA?5?$AA?9?$AA?5?$AA?$CB?$AA?$CI?$AA?$CK?$AAp?$AAD?$AAe?$AAs@ 0002bd60     VFL_MLC:VFLInterface.obj
 0001:0001adf8       ??_C@_1KK@JIABHAP@?$AA?$FL?$AAV?$AAF?$AAL?$AA?3?$AAE?$AAR?$AAR?$AA?$FN?$AA?5?$AA_?$AAW?$AAa?$AAi?$AAt?$AAW?$AAr?$AAi?$AAt?$AAe?$AAC?$AAo?$AAm?$AAp?$AAl?$AAe?$AAt?$AAe?$AA?5?$AA?9?$AA?5?$AAw@ 0002bdf8     VFL_MLC:VFLInterface.obj
 0001:0001aea8       ??_C@_1IE@FJHCMFDP@?$AA?$FL?$AAV?$AAF?$AAL?$AA?3?$AAE?$AAR?$AAR?$AA?$FN?$AA?5?$AA_?$AAG?$AAe?$AAt?$AAP?$AAh?$AAy?$AAs?$AAi?$AAc?$AAa?$AAl?$AAA?$AAd?$AAd?$AAr?$AA?5?$AA?9?$AA?5?$AA?$CB?$AA?$CI?$AAn@ 0002bea8     VFL_MLC:VFLInterface.obj
 0001:0001af30       ??_C@_1HK@EGJFEFBO@?$AA?$FL?$AAV?$AAF?$AAL?$AA?3?$AAE?$AAR?$AAR?$AA?$FN?$AA?5?$AA_?$AAG?$AAe?$AAt?$AAP?$AAh?$AAy?$AAs?$AAi?$AAc?$AAa?$AAl?$AAA?$AAd?$AAd?$AAr?$AA?5?$AA?9?$AA?5?$AA?$CB?$AA?$CI?$AAn@ 0002bf30     VFL_MLC:VFLInterface.obj
 0001:0001afb0       ??_C@_1MI@HLCPMJOM@?$AA?$FL?$AAV?$AAF?$AAL?$AA?3?$AAE?$AAR?$AAR?$AA?$FN?$AA?5?$AA_?$AAC?$AAh?$AAe?$AAc?$AAk?$AAI?$AAn?$AAi?$AAt?$AAi?$AAa?$AAl?$AAB?$AAa?$AAd?$AA?5?$AA?9?$AA?5?$AA?$CB?$AA?$CI?$AA?$CI@ 0002bfb0     VFL_MLC:VFLInterface.obj
 0001:0001b078       ??_C@_1GI@BMHFMAMF@?$AA?$FL?$AAV?$AAF?$AAL?$AA?3?$AAE?$AAR?$AAR?$AA?$FN?$AA?5?$AA_?$AAC?$AAh?$AAe?$AAc?$AAk?$AAI?$AAn?$AAi?$AAt?$AAi?$AAa?$AAl?$AAB?$AAa?$AAd?$AA?5?$AA?9?$AA?5?$AAR?$AAe?$AAa@ 0002c078     VFL_MLC:VFLInterface.obj
 0001:0001b0e0       ??_C@_1GA@DNLIHKAA@?$AA?$FL?$AAV?$AAF?$AAL?$AA?3?$AAE?$AAR?$AAR?$AA?$FN?$AA?5?$AA_?$AAC?$AAh?$AAe?$AAc?$AAk?$AAI?$AAn?$AAi?$AAt?$AAi?$AAa?$AAl?$AAB?$AAa?$AAd?$AA?5?$AA?9?$AA?5?$AA?$CB?$AA?$CI?$AAp@ 0002c0e0     VFL_MLC:VFLInterface.obj
 0001:0001b140       ??_C@_1FI@MFAEIEHD@?$AA?$FL?$AAV?$AAF?$AAL?$AA?3?$AAE?$AAR?$AAR?$AA?$FN?$AA?5?$AAV?$AAF?$AAL?$AA_?$AAI?$AAn?$AAi?$AAt?$AA?5?$AA?9?$AA?5?$AAS?$AAY?$AAS?$AA_?$AAI?$AAD?$AA?5?$AAC?$AAh?$AAe?$AAc@ 0002c140     VFL_MLC:VFLInterface.obj
 0001:0001b198       ??_C@_1EI@JNFCMBKE@?$AA?$FL?$AAV?$AAF?$AAL?$AA?3?$AAI?$AAN?$AAF?$AA?$FN?$AA?5?$AAV?$AAF?$AAL?$AA_?$AAI?$AAn?$AAi?$AAt?$AA?5?$AA?9?$AA?5?$AAS?$AAY?$AAS?$AA_?$AAI?$AAD?$AA?$CI?$AA0?$AAx?$AA?$CF?$AAx@ 0002c198     VFL_MLC:VFLInterface.obj
 0001:0001b1e0       ??_C@_1FM@DNJKKCML@?$AA?$FL?$AAV?$AAF?$AAL?$AA?3?$AAE?$AAR?$AAR?$AA?$FN?$AA?5?$AAV?$AAF?$AAL?$AA_?$AAI?$AAn?$AAi?$AAt?$AA?5?$AA?9?$AA?5?$AAF?$AAI?$AAL?$AA_?$AAG?$AAe?$AAt?$AAF?$AAu?$AAn?$AAc@ 0002c1e0     VFL_MLC:VFLInterface.obj
 0001:0001b240       ??_C@_1FM@INLOEMAG@?$AA?$FL?$AAV?$AAF?$AAL?$AA?3?$AAE?$AAR?$AAR?$AA?$FN?$AA?5?$AAV?$AAF?$AAL?$AA_?$AAI?$AAn?$AAi?$AAt?$AA?5?$AA?9?$AA?5?$AAB?$AAU?$AAF?$AA_?$AAI?$AAn?$AAi?$AAt?$AA?5?$AAe?$AAr@ 0002c240     VFL_MLC:VFLInterface.obj
 0001:0001b2a0       ??_C@_1EE@LPEBMPGK@?$AAV?$AAF?$AAL?$AA_?$AAv?$AA1?$AA?4?$AA0?$AA3?$AA_?$AAW?$AAC?$AAE?$AA6?$AA?4?$AA0?$AA_?$AAS?$AA3?$AAC?$AA6?$AA4?$AA1?$AA0?$AA_?$AA2?$AA0?$AA0?$AA9?$AA1?$AA2?$AA1@ 0002c2a0     VFL_MLC:VFLInterface.obj
 0001:0001b2e4       ??_C@_1DK@GFHCEHJL@?$AA?$FL?$AAV?$AAF?$AAL?$AA?3?$AAI?$AAN?$AAF?$AA?$FN?$AA?5?$AAV?$AAF?$AAL?$AA?5?$AAV?$AAe?$AAr?$AAs?$AAi?$AAo?$AAn?$AA?5?$AA?$DN?$AA?5?$AA?$CF?$AAs?$AA?$AN?$AA?6?$AA?$AA@ 0002c2e4     VFL_MLC:VFLInterface.obj
 0001:0001b320       ??_C@_1HI@KCPLGOI@?$AA?$FL?$AAV?$AAF?$AAL?$AA?3?$AAE?$AAR?$AAR?$AA?$FN?$AA?5?$AA_?$AAC?$AAh?$AAe?$AAc?$AAk?$AAN?$AAA?$AAN?$AAD?$AAF?$AAl?$AAa?$AAs?$AAh?$AA?5?$AAi?$AAs?$AA?5?$AAf?$AAa?$AAi@ 0002c320     VFL_MLC:VFLInterface.obj
 0001:0001b398       ??_C@_1FE@NJGHEACP@?$AA?$FL?$AAV?$AAF?$AAL?$AA?3?$AAE?$AAR?$AAR?$AA?$FN?$AA?5?$AA_?$AAC?$AAh?$AAe?$AAc?$AAk?$AAN?$AAA?$AAN?$AAD?$AAF?$AAl?$AAa?$AAs?$AAh?$AA?5?$AA?9?$AA?5?$AAn?$AAM?$AAI?$AAD@ 0002c398     VFL_MLC:VFLInterface.obj
 0001:0001b3f0       ??_C@_1HM@IPCIKEMK@?$AA?$FL?$AAV?$AAF?$AAL?$AAC?$AAx?$AAt?$AA?$FN?$AA?5?$AA?$DN?$AA?$DN?$AA?$DN?$AA?$DN?$AA?$DN?$AA?$DN?$AA?$DN?$AA?$DN?$AA?$DN?$AA?$DN?$AA?$DN?$AA?$DN?$AA?$DN?$AA?$DN?$AA?$DN?$AA?$DN?$AA?$DN?$AA?$DN?$AA?$DN?$AA?$DN?$AA?$DN?$AA?$DN?$AA?$DN@ 0002c3f0     VFL_MLC:VFLInterface.obj
 0001:0001b46c       ??_C@_19DBPMJLCP@?$AA?$CF?$AAd?$AA?0?$AA?5?$AA?$AA@ 0002c46c     VFL_MLC:VFLInterface.obj
 0001:0001b478       ??_C@_1FA@ICNBMACI@?$AA?$FL?$AAV?$AAF?$AAL?$AAC?$AAx?$AAt?$AA?$FN?$AA?5?$AAI?$AAn?$AAi?$AAt?$AAi?$AAa?$AAl?$AA?5?$AAB?$AAa?$AAd?$AA?5?$AAB?$AAl?$AAo?$AAc?$AAk?$AA?5?$AAL?$AAi?$AAs?$AAt?$AA?$CI@ 0002c478     VFL_MLC:VFLInterface.obj
 0001:0001b4c8       ??_C@_1DA@EOMMBLKP@?$AA?$FL?$AAV?$AAF?$AAL?$AAC?$AAx?$AAt?$AA?$FN?$AA?5?$AAa?$AAB?$AAa?$AAd?$AAI?$AAn?$AAf?$AAo?$AAB?$AAl?$AAk?$AA?5?$AA?$DN?$AA?5?$AA?$AA@ 0002c4c8     VFL_MLC:VFLInterface.obj
 0001:0001b4f8       ??_C@_1CK@GCLICAL@?$AA?$FL?$AAV?$AAF?$AAL?$AAC?$AAx?$AAt?$AA?$FN?$AA?5?$AAa?$AAB?$AAa?$AAd?$AAM?$AAa?$AAr?$AAk?$AA?5?$AA?$DN?$AA?5?$AA?$AA@ 0002c4f8     VFL_MLC:VFLInterface.obj
 0001:0001b524       ??_C@_1DE@JOELIGAC@?$AA?$FL?$AAV?$AAF?$AAL?$AAC?$AAx?$AAt?$AA?$FN?$AA?5?$AAn?$AAC?$AAx?$AAt?$AAA?$AAg?$AAe?$AA?5?$AA?$DN?$AA?5?$AA0?$AAx?$AA?$CF?$AAx?$AA?$AN?$AA?6?$AA?$AA@ 0002c524     VFL_MLC:VFLInterface.obj
 0001:0001b558       ??_C@_1DO@NGFFMKCO@?$AA?$FL?$AAV?$AAF?$AAL?$AAC?$AAx?$AAt?$AA?$FN?$AA?5?$AAn?$AAC?$AAx?$AAt?$AAL?$AAo?$AAc?$AAa?$AAt?$AAi?$AAo?$AAn?$AA?5?$AA?$DN?$AA?5?$AA0?$AAx?$AA?$CF?$AAx?$AA?$AN?$AA?6?$AA?$AA@ 0002c558     VFL_MLC:VFLInterface.obj
 0001:0001b598       ??_C@_1EG@NKFPCIII@?$AA?$FL?$AAV?$AAF?$AAL?$AAC?$AAx?$AAt?$AA?$FN?$AA?5?$AAn?$AAN?$AAu?$AAm?$AAO?$AAf?$AAI?$AAn?$AAi?$AAt?$AAB?$AAa?$AAd?$AAB?$AAl?$AAk?$AA?5?$AA?$DN?$AA?5?$AA0?$AAx?$AA?$CF?$AAx@ 0002c598     VFL_MLC:VFLInterface.obj
 0001:0001b5e0       ??_C@_1EE@BBMAGAIK@?$AA?$FL?$AAV?$AAF?$AAL?$AAC?$AAx?$AAt?$AA?$FN?$AA?5?$AAn?$AAN?$AAu?$AAm?$AAO?$AAf?$AAW?$AAr?$AAi?$AAt?$AAe?$AAF?$AAa?$AAi?$AAl?$AA?5?$AA?$DN?$AA?5?$AA0?$AAx?$AA?$CF?$AAx?$AA?$AN@ 0002c5e0     VFL_MLC:VFLInterface.obj
 0001:0001b628       ??_C@_1EE@CDOEPDAG@?$AA?$FL?$AAV?$AAF?$AAL?$AAC?$AAx?$AAt?$AA?$FN?$AA?5?$AAn?$AAN?$AAu?$AAm?$AAO?$AAf?$AAE?$AAr?$AAa?$AAs?$AAe?$AAF?$AAa?$AAi?$AAl?$AA?5?$AA?$DN?$AA?5?$AA0?$AAx?$AA?$CF?$AAx?$AA?$AN@ 0002c628     VFL_MLC:VFLInterface.obj
 0001:0001b670       ??_C@_1EK@FPNHIANP@?$AA?$FL?$AAV?$AAF?$AAL?$AAC?$AAx?$AAt?$AA?$FN?$AA?5?$AAn?$AAB?$AAa?$AAd?$AAM?$AAa?$AAp?$AAT?$AAa?$AAb?$AAl?$AAe?$AAM?$AAa?$AAx?$AAI?$AAd?$AAx?$AA?5?$AA?$DN?$AA?5?$AA0?$AAx@ 0002c670     VFL_MLC:VFLInterface.obj
 0001:0001b6bc       ??_C@_1DC@PNBCCFEK@?$AA?$FL?$AAV?$AAF?$AAL?$AAC?$AAx?$AAt?$AA?$FN?$AA?5?$AAa?$AAB?$AAa?$AAd?$AAM?$AAa?$AAp?$AAT?$AAa?$AAb?$AAl?$AAe?$AA?5?$AA?$DN?$AA?5?$AA?$AA@ 0002c6bc     VFL_MLC:VFLInterface.obj
 0001:0001b6f0       ??_C@_1HM@LCHIEOAD@?$AA?6?$AA?$FL?$AAV?$AAF?$AAL?$AAC?$AAx?$AAt?$AA?$FN?$AA?5?$AA?$DN?$AA?$DN?$AA?$DN?$AA?$DN?$AA?$DN?$AA?$DN?$AA?$DN?$AA?$DN?$AA?$DN?$AA?$DN?$AA?$DN?$AA?$DN?$AA?$DN?$AA?$DN?$AA?$DN?$AA?$DN?$AA?$DN?$AA?$DN?$AA?$DN?$AA?$DN?$AA?$DN?$AA?$DN@ 0002c6f0     VFL_MLC:VFLInterface.obj
 0001:0001b770       ??_C@_1EA@CJOHHMCE@?$AA?$FL?$AAV?$AAF?$AAL?$AAC?$AAx?$AAt?$AA?$FN?$AA?5?$AAn?$AAG?$AAl?$AAo?$AAb?$AAa?$AAl?$AAC?$AAx?$AAt?$AAA?$AAg?$AAe?$AA?5?$AA?$DN?$AA?5?$AA0?$AAx?$AA?$CF?$AAx?$AA?$AN?$AA?6?$AA?$AA@ 0002c770     VFL_MLC:VFLInterface.obj
 0001:0001b7b0       ??_C@_1CO@MODNLFGB@?$AA?$FL?$AAV?$AAF?$AAL?$AAC?$AAx?$AAt?$AA?$FN?$AA?5?$AAa?$AAF?$AAT?$AAL?$AAC?$AAx?$AAt?$AAV?$AAb?$AAn?$AA?5?$AA?$DN?$AA?5?$AA?$AA@ 0002c7b0     VFL_MLC:VFLInterface.obj
 0001:0001b7e0       ??_C@_1FK@FMGPKEJM@?$AA?$FL?$AAV?$AAF?$AAL?$AA?3?$AAE?$AAR?$AAR?$AA?$FN?$AA?5?$AA_?$AAP?$AAr?$AAi?$AAn?$AAt?$AAV?$AAF?$AAL?$AAC?$AAx?$AAt?$AA?5?$AA?9?$AA?5?$AA?$CI?$AAp?$AAV?$AAF?$AAL?$AAC?$AAx@ 0002c7e0     VFL_MLC:VFLInterface.obj
 0001:0001b840       ??_C@_1HE@JINCHODK@?$AA?$FL?$AAV?$AAF?$AAL?$AA?3?$AAE?$AAR?$AAR?$AA?$FN?$AA?5?$AA_?$AAP?$AAr?$AAi?$AAn?$AAt?$AAV?$AAF?$AAL?$AAC?$AAx?$AAt?$AA?5?$AA?9?$AA?5?$AA?$CB?$AA?$CI?$AAn?$AAB?$AAa?$AAn?$AAk@ 0002c840     VFL_MLC:VFLInterface.obj
 0001:0001b8b8       ??_C@_1HM@KBLHLELB@?$AA?$FL?$AAV?$AAF?$AAL?$AA?3?$AAE?$AAR?$AAR?$AA?$FN?$AA?5?$AA_?$AAG?$AAe?$AAt?$AAF?$AAl?$AAa?$AAg?$AAF?$AAo?$AAr?$AAD?$AAB?$AAG?$AAM?$AAS?$AAG?$AA?5?$AA?9?$AA?5?$AAB?$AAU@ 0002c8b8     VFL_MLC:VFLInterface.obj
 0001:0001b938       ??_C@_1LK@OLBECDPK@?$AA?$FL?$AAV?$AAF?$AAL?$AA?3?$AAE?$AAR?$AAR?$AA?$FN?$AA?5?$AAt?$AAh?$AAe?$AAr?$AAe?$AA?5?$AAi?$AAs?$AA?5?$AAn?$AAo?$AA?5?$AAs?$AAp?$AAa?$AAr?$AAe?$AA?5?$AAt?$AAo?$AA?5?$AAw@ 0002c938     VFL_MLC:VFLInterface.obj
 0001:0001b9f8       ??_C@_1IM@IKDDDMME@?$AA?$FL?$AAV?$AAF?$AAL?$AA?3?$AAE?$AAR?$AAR?$AA?$FN?$AA?5?$AA_?$AAS?$AAt?$AAo?$AAr?$AAe?$AAV?$AAF?$AAL?$AAC?$AAx?$AAt?$AA?5?$AA?9?$AA?5?$AA?$CB?$AA?$CI?$AAn?$AAB?$AAl?$AAk?$AAI@ 0002c9f8     VFL_MLC:VFLInterface.obj
 0001:0001ba88       ??_C@_1KE@ILGPCGCF@?$AA?$FL?$AAV?$AAF?$AAL?$AA?3?$AAE?$AAR?$AAR?$AA?$FN?$AA?5?$AA_?$AAS?$AAt?$AAo?$AAr?$AAe?$AAV?$AAF?$AAL?$AAC?$AAx?$AAt?$AA?5?$AA?9?$AA?5?$AA?$CB?$AA?$CI?$AAG?$AAE?$AAT?$AA_?$AAA@ 0002ca88     VFL_MLC:VFLInterface.obj
 0001:0001bb30       ??_C@_1GE@NMFCFHNJ@?$AA?$FL?$AAV?$AAF?$AAL?$AA?3?$AAE?$AAR?$AAR?$AA?$FN?$AA?5?$AA_?$AAS?$AAt?$AAo?$AAr?$AAe?$AAV?$AAF?$AAL?$AAC?$AAx?$AAt?$AA?5?$AA?9?$AA?5?$AA?$CB?$AA?$CI?$AAn?$AAB?$AAa?$AAn?$AAk@ 0002cb30     VFL_MLC:VFLInterface.obj
 0001:0001bb98       ??_C@_1FE@CCLPHHLG@?$AA?$FL?$AAV?$AAF?$AAL?$AA?3?$AAE?$AAR?$AAR?$AA?$FN?$AA?5?$AAB?$AAU?$AAF?$AA_?$AAG?$AAe?$AAt?$AA?$CI?$AAn?$AAB?$AAa?$AAn?$AAk?$AA?3?$AA?$CF?$AAd?$AA?$CJ?$AA?5?$AAi?$AAs?$AA?5?$AAf@ 0002cb98     VFL_MLC:VFLInterface.obj
 0001:0001bbf0       ??_C@_1GO@DPECPEAO@?$AA?$FL?$AAV?$AAF?$AAL?$AA?3?$AAE?$AAR?$AAR?$AA?$FN?$AA?5?$AA_?$AAL?$AAo?$AAa?$AAd?$AAV?$AAF?$AAL?$AAC?$AAx?$AAt?$AA?$CI?$AAn?$AAB?$AAa?$AAn?$AAk?$AA?3?$AA?$CF?$AAd?$AA?$CJ?$AA?5@ 0002cbf0     VFL_MLC:VFLInterface.obj
 0001:0001bc60       ??_C@_1IK@JEDALCDM@?$AA?$FL?$AAV?$AAF?$AAL?$AA?3?$AAE?$AAR?$AAR?$AA?$FN?$AA?5?$AA_?$AAR?$AAe?$AAp?$AAl?$AAa?$AAc?$AAe?$AAB?$AAa?$AAd?$AAB?$AAl?$AAk?$AA?$CI?$AAn?$AAB?$AAa?$AAn?$AAk?$AA?3?$AA?$CF@ 0002cc60     VFL_MLC:VFLInterface.obj
 0001:0001bcf0       ??_C@_1FG@JLICNLIK@?$AA?$FL?$AAV?$AAF?$AAL?$AA?3?$AAE?$AAR?$AAR?$AA?$FN?$AA?5?$AA?5?$AAt?$AAh?$AAe?$AAr?$AAe?$AA?5?$AAi?$AAs?$AA?5?$AAn?$AAo?$AA?5?$AAr?$AAe?$AAs?$AAe?$AAr?$AAv?$AAe?$AAd?$AA?5@ 0002ccf0     VFL_MLC:VFLInterface.obj
 0001:0001bd48       ??_C@_1HE@IKHDMNAF@?$AA?$FL?$AAV?$AAF?$AAL?$AA?3?$AAE?$AAR?$AAR?$AA?$FN?$AA?5?$AA_?$AAR?$AAe?$AAp?$AAl?$AAa?$AAc?$AAe?$AAB?$AAa?$AAd?$AAB?$AAl?$AAk?$AA?5?$AA?9?$AA?5?$AA_?$AAS?$AAt?$AAo?$AAr@ 0002cd48     VFL_MLC:VFLInterface.obj
 0001:0001bdc0       ??_C@_1HC@MCDFCHFO@?$AA?$FL?$AAV?$AAF?$AAL?$AA?3?$AAE?$AAR?$AAR?$AA?$FN?$AA?5?$AA_?$AAR?$AAe?$AAp?$AAl?$AAa?$AAc?$AAe?$AAB?$AAa?$AAd?$AAB?$AAl?$AAk?$AA?5?$AA?9?$AA?5?$AAt?$AAh?$AAe?$AAr?$AAe@ 0002cdc0     VFL_MLC:VFLInterface.obj
 0001:0001be38       ??_C@_1HG@EEMDGHPO@?$AA?$FL?$AAV?$AAF?$AAL?$AA?3?$AAE?$AAR?$AAR?$AA?$FN?$AA?5?$AA_?$AAR?$AAe?$AAp?$AAl?$AAa?$AAc?$AAe?$AAB?$AAa?$AAd?$AAB?$AAl?$AAk?$AA?5?$AA?9?$AA?5?$AA_?$AAS?$AAt?$AAo?$AAr@ 0002ce38     VFL_MLC:VFLInterface.obj
 0001:0001beb0       ??_C@_1HC@PEHCIHCI@?$AA?$FL?$AAV?$AAF?$AAL?$AA?3?$AAE?$AAR?$AAR?$AA?$FN?$AA?5?$AA_?$AAR?$AAe?$AAp?$AAl?$AAa?$AAc?$AAe?$AAB?$AAa?$AAd?$AAB?$AAl?$AAk?$AA?5?$AA?9?$AA?5?$AAT?$AAh?$AAe?$AAr?$AAe@ 0002ceb0     VFL_MLC:VFLInterface.obj
 0001:0001bf28       ??_C@_1JC@EPDDFCJ@?$AA?$FL?$AAV?$AAF?$AAL?$AA?3?$AAE?$AAR?$AAR?$AA?$FN?$AA?5?$AA_?$AAR?$AAe?$AAp?$AAl?$AAa?$AAc?$AAe?$AAB?$AAa?$AAd?$AAB?$AAl?$AAk?$AA?5?$AA?9?$AA?5?$AA_?$AAG?$AAe?$AAt?$AAR@ 0002cf28     VFL_MLC:VFLInterface.obj
 0001:0001bfc0       ??_C@_1JA@NMODNJGN@?$AA?$FL?$AAV?$AAF?$AAL?$AA?3?$AAE?$AAR?$AAR?$AA?$FN?$AA?5?$AA_?$AAR?$AAe?$AAp?$AAl?$AAa?$AAc?$AAe?$AAB?$AAa?$AAd?$AAB?$AAl?$AAk?$AA?5?$AA?9?$AA?5?$AAr?$AAi?$AAg?$AAh?$AAt@ 0002cfc0     VFL_MLC:VFLInterface.obj
 0001:0001c050       ??_C@_1IM@FPMJEBAB@?$AA?$FL?$AAV?$AAF?$AAL?$AA?3?$AAE?$AAR?$AAR?$AA?$FN?$AA?5?$AA_?$AAR?$AAe?$AAp?$AAl?$AAa?$AAc?$AAe?$AAB?$AAa?$AAd?$AAB?$AAl?$AAk?$AA?5?$AA?9?$AA?5?$AAL?$AAe?$AAf?$AAt?$AA?5@ 0002d050     VFL_MLC:VFLInterface.obj
 0001:0001c0e0       ??_C@_1JG@BLPFGFDA@?$AA?$FL?$AAV?$AAF?$AAL?$AA?3?$AAI?$AAN?$AAF?$AA?$FN?$AA?5?$AA_?$AAW?$AAa?$AAi?$AAt?$AAE?$AAr?$AAa?$AAs?$AAe?$AAC?$AAo?$AAm?$AAp?$AAl?$AAe?$AAt?$AAe?$AA?5?$AA?9?$AA?5?$AAr@ 0002d0e0     VFL_MLC:VFLInterface.obj
 0001:0001c178       ??_C@_1KI@CEDLPDPL@?$AA?$FL?$AAV?$AAF?$AAL?$AA?3?$AAI?$AAN?$AAF?$AA?$FN?$AA?5?$AA_?$AAW?$AAa?$AAi?$AAt?$AAE?$AAr?$AAa?$AAs?$AAe?$AAC?$AAo?$AAm?$AAp?$AAl?$AAe?$AAt?$AAe?$AA?5?$AA?9?$AA?5?$AAr@ 0002d178     VFL_MLC:VFLInterface.obj
 0001:0001c220       ??_C@_1JE@LAEMGDPJ@?$AA?$FL?$AAV?$AAF?$AAL?$AA?3?$AAI?$AAN?$AAF?$AA?$FN?$AA?5?$AA_?$AAW?$AAa?$AAi?$AAt?$AAE?$AAr?$AAa?$AAs?$AAe?$AAC?$AAo?$AAm?$AAp?$AAl?$AAe?$AAt?$AAe?$AA?5?$AA?9?$AA?5?$AAl@ 0002d220     VFL_MLC:VFLInterface.obj
 0001:0001c2b8       ??_C@_1HM@EDBFNDDC@?$AA?$FL?$AAV?$AAF?$AAL?$AA?3?$AAE?$AAR?$AAR?$AA?$FN?$AA?5?$AA_?$AAW?$AAa?$AAi?$AAt?$AAE?$AAr?$AAa?$AAs?$AAe?$AAC?$AAo?$AAm?$AAp?$AAl?$AAe?$AAt?$AAe?$AA?5?$AA?9?$AA?5?$AA_@ 0002d2b8     VFL_MLC:VFLInterface.obj
 0001:0001c338       ??_C@_1IA@HDFEJDNG@?$AA?$FL?$AAV?$AAF?$AAL?$AA?3?$AAE?$AAR?$AAR?$AA?$FN?$AA?5?$AA_?$AAW?$AAa?$AAi?$AAt?$AAE?$AAr?$AAa?$AAs?$AAe?$AAC?$AAo?$AAm?$AAp?$AAl?$AAe?$AAt?$AAe?$AA?5?$AA?9?$AA?5?$AA_@ 0002d338     VFL_MLC:VFLInterface.obj
 0001:0001c3b8       ??_C@_1KG@HMCAEON@?$AA?$FL?$AAV?$AAF?$AAL?$AA?3?$AAI?$AAN?$AAF?$AA?$FN?$AA?5?$AA_?$AAW?$AAa?$AAi?$AAt?$AAE?$AAr?$AAa?$AAs?$AAe?$AAC?$AAo?$AAm?$AAp?$AAl?$AAe?$AAt?$AAe?$AA?5?$AA?9?$AA?5?$AAl@ 0002d3b8     VFL_MLC:VFLInterface.obj
 0001:0001c460       ??_C@_1KC@JDBDAPJJ@?$AA?$FL?$AAV?$AAF?$AAL?$AA?3?$AAE?$AAR?$AAR?$AA?$FN?$AA?5?$AA_?$AAW?$AAa?$AAi?$AAt?$AAE?$AAr?$AAa?$AAs?$AAe?$AAC?$AAo?$AAm?$AAp?$AAl?$AAe?$AAt?$AAe?$AA?5?$AA?9?$AA?5?$AA?$CB@ 0002d460     VFL_MLC:VFLInterface.obj
 0001:0001c508       ??_C@_1KC@BGPAMEAN@?$AA?$FL?$AAV?$AAF?$AAL?$AA?3?$AAE?$AAR?$AAR?$AA?$FN?$AA?5?$AA_?$AAW?$AAa?$AAi?$AAt?$AAE?$AAr?$AAa?$AAs?$AAe?$AAC?$AAo?$AAm?$AAp?$AAl?$AAe?$AAt?$AAe?$AA?5?$AA?9?$AA?5?$AAe@ 0002d508     VFL_MLC:VFLInterface.obj
 0001:0001c5b0       ??_C@_1GO@LELAHACB@?$AA?6?$AA?6?$AA?$FL?$AAV?$AAF?$AAL?$AA?3?$AAI?$AAN?$AAF?$AA?$FN?$AA?5?$AAV?$AAF?$AAL?$AA_?$AAO?$AAp?$AAe?$AAn?$AA?5?$AA?9?$AA?5?$AAW?$AAM?$AAR?$AA_?$AAE?$AAR?$AAR?$AA_?$AAI@ 0002d5b0     VFL_MLC:VFLInterface.obj
 0001:0001c620       ??_C@_1FO@MBLHFEKJ@?$AA?$FL?$AAV?$AAF?$AAL?$AA?3?$AAE?$AAR?$AAR?$AA?$FN?$AA?5?$AAV?$AAF?$AAL?$AA_?$AAO?$AAp?$AAe?$AAn?$AA?5?$AA?9?$AA?5?$AAS?$AAy?$AAn?$AAc?$AA?$CI?$AAn?$AAB?$AAa?$AAn?$AAk?$AAI@ 0002d620     VFL_MLC:VFLInterface.obj
 0001:0001c680       ??_C@_1GA@PFJDMCBH@?$AA?$FL?$AAV?$AAF?$AAL?$AA?3?$AAE?$AAR?$AAR?$AA?$FN?$AA?5?$AAV?$AAF?$AAL?$AA_?$AAO?$AAp?$AAe?$AAn?$AA?5?$AA?9?$AA?5?$AAE?$AAr?$AAa?$AAs?$AAe?$AA?$CI?$AAn?$AAB?$AAa?$AAn?$AAk@ 0002d680     VFL_MLC:VFLInterface.obj
 0001:0001c6e0       ??_C@_1HE@DMDANJBJ@?$AA?$FL?$AAV?$AAF?$AAL?$AA?3?$AAE?$AAR?$AAR?$AA?$FN?$AA?5?$AAV?$AAF?$AAL?$AA_?$AAO?$AAp?$AAe?$AAn?$AA?$CI?$AAi?$AAn?$AAd?$AAe?$AAx?$AA?5?$AAe?$AAr?$AAr?$AAo?$AAr?$AA?5?$AAf@ 0002d6e0     VFL_MLC:VFLInterface.obj
 0001:0001c758       ??_C@_1GG@PEHNHICB@?$AA?$FL?$AAV?$AAF?$AAL?$AA?3?$AAE?$AAR?$AAR?$AA?$FN?$AA?5?$AAV?$AAF?$AAL?$AA_?$AAO?$AAp?$AAe?$AAn?$AA?5?$AA?9?$AA?5?$AA_?$AAL?$AAo?$AAa?$AAd?$AAV?$AAF?$AAL?$AAC?$AAx?$AAt@ 0002d758     VFL_MLC:VFLInterface.obj
 0001:0001c7c0       ??_C@_1GA@BLPFIEAO@?$AA?$FL?$AAV?$AAF?$AAL?$AA?3?$AAE?$AAR?$AAR?$AA?$FN?$AA?5?$AAV?$AAF?$AAL?$AA_?$AAO?$AAp?$AAe?$AAn?$AA?5?$AA?9?$AA?5?$AA_?$AAC?$AAh?$AAe?$AAc?$AAk?$AAN?$AAA?$AAN?$AAD?$AAF@ 0002d7c0     VFL_MLC:VFLInterface.obj
 0001:0001c820       ??_C@_1FK@PCOFNNAC@?$AA?$FL?$AAV?$AAF?$AAL?$AA?3?$AAE?$AAR?$AAR?$AA?$FN?$AA?5?$AAV?$AAF?$AAL?$AA_?$AAR?$AAe?$AAa?$AAd?$AA?$CI?$AAn?$AAV?$AAp?$AAn?$AA?3?$AA?$CF?$AAd?$AA?$CJ?$AA?5?$AAn?$AAV?$AAp?$AAn@ 0002d820     VFL_MLC:VFLInterface.obj
 0001:0001c880       ??_C@_1LG@HBLLEPHL@?$AA?$FL?$AAV?$AAF?$AAL?$AA?3?$AAE?$AAR?$AAR?$AA?$FN?$AA?5?$AAV?$AAF?$AAL?$AA_?$AAR?$AAe?$AAa?$AAd?$AA?$CI?$AAn?$AAV?$AAp?$AAn?$AA?3?$AA?$CF?$AAd?$AA?$CJ?$AA?5?$AAn?$AAV?$AAp?$AAn@ 0002d880     VFL_MLC:VFLInterface.obj
 0001:0001c938       ??_C@_1OE@BEAKNLDB@?$AA?$FL?$AAV?$AAF?$AAL?$AA?3?$AAI?$AAN?$AAF?$AA?$FN?$AA?5?$AAV?$AAF?$AAL?$AA_?$AAR?$AAe?$AAa?$AAd?$AA?$CI?$AAW?$AAM?$AAR?$AA_?$AAR?$AAE?$AAA?$AAD?$AA_?$AAR?$AAE?$AAC?$AAL@ 0002d938     VFL_MLC:VFLInterface.obj
 0001:0001ca20       ??_C@_1OC@JKEENKFO@?$AA?$FL?$AAV?$AAF?$AAL?$AA?3?$AAI?$AAN?$AAF?$AA?$FN?$AA?5?$AAV?$AAF?$AAL?$AA_?$AAR?$AAe?$AAa?$AAd?$AA?$CI?$AAW?$AAM?$AAR?$AA_?$AAR?$AAE?$AAA?$AAD?$AA_?$AAR?$AAE?$AAC?$AAL@ 0002da20     VFL_MLC:VFLInterface.obj
 0001:0001cb08       ??_C@_1NE@CPFCHBFH@?$AA?$FL?$AAV?$AAF?$AAL?$AA?3?$AAI?$AAN?$AAF?$AA?$FN?$AA?5?$AAV?$AAF?$AAL?$AA_?$AAR?$AAe?$AAa?$AAd?$AA?$CI?$AAW?$AAM?$AAR?$AA_?$AAR?$AAE?$AAA?$AAD?$AA_?$AAR?$AAE?$AAC?$AAL@ 0002db08     VFL_MLC:VFLInterface.obj
 0001:0001cbe0       ??_C@_1FI@HKCDLGJN@?$AA?$FL?$AAV?$AAF?$AAL?$AA?3?$AAE?$AAR?$AAR?$AA?$FN?$AA?5?$AAV?$AAF?$AAL?$AA_?$AAR?$AAe?$AAa?$AAd?$AA?5?$AA?9?$AA?5?$AAR?$AAe?$AAa?$AAd?$AA?$CI?$AAn?$AAB?$AAa?$AAn?$AAk?$AA?3@ 0002dbe0     VFL_MLC:VFLInterface.obj
 0001:0001cc38       ??_C@_1KC@OLBKCFCK@?$AA?$FL?$AAV?$AAF?$AAL?$AA?3?$AAI?$AAN?$AAF?$AA?$FN?$AA?5?$AAV?$AAF?$AAL?$AA_?$AAR?$AAe?$AAa?$AAd?$AA?$CI?$AAW?$AAM?$AAR?$AA_?$AAR?$AAE?$AAA?$AAD?$AA_?$AAR?$AAE?$AAC?$AAL@ 0002dc38     VFL_MLC:VFLInterface.obj
 0001:0001cce0       ??_C@_1KA@OIKJEFNP@?$AA?$FL?$AAV?$AAF?$AAL?$AA?3?$AAI?$AAN?$AAF?$AA?$FN?$AA?5?$AAV?$AAF?$AAL?$AA_?$AAR?$AAe?$AAa?$AAd?$AA?$CI?$AAW?$AAM?$AAR?$AA_?$AAR?$AAE?$AAA?$AAD?$AA_?$AAR?$AAE?$AAC?$AAL@ 0002dce0     VFL_MLC:VFLInterface.obj
 0001:0001cd80       ??_C@_1JC@FEHEMBLD@?$AA?$FL?$AAV?$AAF?$AAL?$AA?3?$AAI?$AAN?$AAF?$AA?$FN?$AA?5?$AAV?$AAF?$AAL?$AA_?$AAR?$AAe?$AAa?$AAd?$AA?$CI?$AAW?$AAM?$AAR?$AA_?$AAR?$AAE?$AAA?$AAD?$AA_?$AAR?$AAE?$AAC?$AAL@ 0002dd80     VFL_MLC:VFLInterface.obj
 0001:0001ce18       ??_C@_1II@KHPMHCLA@?$AA?$FL?$AAV?$AAF?$AAL?$AA?3?$AAE?$AAR?$AAR?$AA?$FN?$AA?5?$AAV?$AAF?$AAL?$AA_?$AAR?$AAe?$AAa?$AAd?$AA?$CI?$AAO?$AAS?$AAR?$AAE?$AAC?$AAL?$AAA?$AAI?$AAM?$AA?$CJ?$AA?5?$AA?9?$AA?5@ 0002de18     VFL_MLC:VFLInterface.obj
 0001:0001cea0       ??_C@_1HC@MFOCDPBM@?$AA?$FL?$AAV?$AAF?$AAL?$AA?3?$AAE?$AAR?$AAR?$AA?$FN?$AA?5?$AAV?$AAF?$AAL?$AA_?$AAR?$AAe?$AAa?$AAd?$AA?$CI?$AAO?$AAS?$AAR?$AAE?$AAC?$AAL?$AAA?$AAI?$AAM?$AA?$CJ?$AA?5?$AA?9?$AA?5@ 0002dea0     VFL_MLC:VFLInterface.obj
 0001:0001cf18       ??_C@_1II@GLPBBODN@?$AA?$FL?$AAV?$AAF?$AAL?$AA?3?$AAE?$AAR?$AAR?$AA?$FN?$AA?5?$AAV?$AAF?$AAL?$AA_?$AAR?$AAe?$AAa?$AAd?$AA?$CI?$AAO?$AAS?$AAR?$AAE?$AAC?$AAL?$AAA?$AAI?$AAM?$AA?$CJ?$AA?5?$AA?9?$AA?5@ 0002df18     VFL_MLC:VFLInterface.obj
 0001:0001cfa0       ??_C@_1II@ILIOAPH@?$AA?$FL?$AAV?$AAF?$AAL?$AA?3?$AAE?$AAR?$AAR?$AA?$FN?$AA?5?$AAV?$AAF?$AAL?$AA_?$AAR?$AAe?$AAa?$AAd?$AA?$CI?$AAO?$AAS?$AAR?$AAE?$AAC?$AAL?$AAA?$AAI?$AAM?$AA?$CJ?$AA?5?$AA?9?$AA?5@ 0002dfa0     VFL_MLC:VFLInterface.obj
 0001:0001d028       ??_C@_1II@EBENKOLF@?$AA?$FL?$AAV?$AAF?$AAL?$AA?3?$AAE?$AAR?$AAR?$AA?$FN?$AA?5?$AAV?$AAF?$AAL?$AA_?$AAR?$AAe?$AAa?$AAd?$AA?$CI?$AAO?$AAS?$AAR?$AAE?$AAC?$AAL?$AAA?$AAI?$AAM?$AA?$CJ?$AA?5?$AA?9?$AA?5@ 0002e028     VFL_MLC:VFLInterface.obj
 0001:0001d0b0       ??_C@_1II@CCAEFAHP@?$AA?$FL?$AAV?$AAF?$AAL?$AA?3?$AAE?$AAR?$AAR?$AA?$FN?$AA?5?$AAV?$AAF?$AAL?$AA_?$AAR?$AAe?$AAa?$AAd?$AA?$CI?$AAO?$AAS?$AAR?$AAE?$AAC?$AAL?$AAA?$AAI?$AAM?$AA?$CJ?$AA?5?$AA?9?$AA?5@ 0002e0b0     VFL_MLC:VFLInterface.obj
 0001:0001d138       ??_C@_1HO@LIGGPMGG@?$AA?$FL?$AAV?$AAF?$AAL?$AA?3?$AAE?$AAR?$AAR?$AA?$FN?$AA?5?$AAV?$AAF?$AAL?$AA_?$AAR?$AAe?$AAa?$AAd?$AA?5?$AA?9?$AA?5?$AA_?$AAR?$AAe?$AAm?$AAa?$AAp?$AAB?$AAa?$AAd?$AAB?$AAl@ 0002e138     VFL_MLC:VFLInterface.obj
 0001:0001d1b8       ??_C@_1FM@GMPMNGE@?$AA?$FL?$AAV?$AAF?$AAL?$AA?3?$AAE?$AAR?$AAR?$AA?$FN?$AA?5?$AAV?$AAF?$AAL?$AA_?$AAR?$AAe?$AAa?$AAd?$AA?5?$AA?9?$AA?5?$AAD?$AAo?$AAS?$AAy?$AAn?$AAc?$AA?$CI?$AAn?$AAB?$AAa?$AAn@ 0002e1b8     VFL_MLC:VFLInterface.obj
 0001:0001d218       ??_C@_1FM@PDAMLBPM@?$AA?$FL?$AAV?$AAF?$AAL?$AA?3?$AAE?$AAR?$AAR?$AA?$FN?$AA?5?$AAV?$AAF?$AAL?$AA_?$AAW?$AAr?$AAi?$AAt?$AAe?$AA?$CI?$AAn?$AAV?$AAp?$AAn?$AA?3?$AA?$CF?$AAd?$AA?$CJ?$AA?5?$AAn?$AAV?$AAp@ 0002e218     VFL_MLC:VFLInterface.obj
 0001:0001d278       ??_C@_1FK@PBGHCPA@?$AA?$FL?$AAV?$AAF?$AAL?$AA?3?$AAE?$AAR?$AAR?$AA?$FN?$AA?5?$AAV?$AAF?$AAL?$AA_?$AAW?$AAr?$AAi?$AAt?$AAe?$AA?5?$AA?9?$AA?5?$AAS?$AAy?$AAn?$AAc?$AA?$CI?$AAn?$AAB?$AAa?$AAn?$AAk@ 0002e278     VFL_MLC:VFLInterface.obj
 0001:0001d2d8       ??_C@_1IA@FCEJCJPM@?$AA?$FL?$AAV?$AAF?$AAL?$AA?3?$AAE?$AAR?$AAR?$AA?$FN?$AA?5?$AAV?$AAF?$AAL?$AA_?$AAW?$AAr?$AAi?$AAt?$AAe?$AA?5?$AA?9?$AA?5?$AA_?$AAR?$AAe?$AAm?$AAa?$AAp?$AAB?$AAa?$AAd?$AAB@ 0002e2d8     VFL_MLC:VFLInterface.obj
 0001:0001d358       ??_C@_1FO@MIPECNMN@?$AA?$FL?$AAV?$AAF?$AAL?$AA?3?$AAE?$AAR?$AAR?$AA?$FN?$AA?5?$AAV?$AAF?$AAL?$AA_?$AAW?$AAr?$AAi?$AAt?$AAe?$AA?5?$AA?9?$AA?5?$AAD?$AAo?$AAS?$AAy?$AAn?$AAc?$AA?$CI?$AAn?$AAB?$AAa@ 0002e358     VFL_MLC:VFLInterface.obj
 0001:0001d3b8       ??_C@_1FM@OAELLNJB@?$AA?$FL?$AAV?$AAF?$AAL?$AA?3?$AAE?$AAR?$AAR?$AA?$FN?$AA?5?$AAV?$AAF?$AAL?$AA_?$AAS?$AAy?$AAn?$AAc?$AA?5?$AA?9?$AA?5?$AAD?$AAo?$AAS?$AAy?$AAn?$AAc?$AA?$CI?$AAn?$AAB?$AAa?$AAn@ 0002e3b8     VFL_MLC:VFLInterface.obj
 0001:0001d418       ??_C@_1FO@IDNGAEIA@?$AA?$FL?$AAV?$AAF?$AAL?$AA?3?$AAE?$AAR?$AAR?$AA?$FN?$AA?5?$AAV?$AAF?$AAL?$AA_?$AAE?$AAr?$AAa?$AAs?$AAe?$AA?$CI?$AAn?$AAV?$AAb?$AAn?$AA?3?$AA?$CF?$AAd?$AA?$CJ?$AA?5?$AAi?$AAn?$AAp@ 0002e418     VFL_MLC:VFLInterface.obj
 0001:0001d478       ??_C@_1EE@EHGNDGKL@?$AA?$FL?$AAV?$AAF?$AAL?$AA?3?$AAE?$AAR?$AAR?$AA?$FN?$AA?5?$AA?5?$AAS?$AAy?$AAn?$AAc?$AA?$CI?$AAn?$AAB?$AAa?$AAn?$AAk?$AA?3?$AA?$CF?$AAd?$AA?$CJ?$AA?5?$AAf?$AAa?$AAi?$AAl?$AA?$CB?$AA?$AN@ 0002e478     VFL_MLC:VFLInterface.obj
 0001:0001d4c0       ??_C@_1IA@CEBJJDAA@?$AA?$FL?$AAV?$AAF?$AAL?$AA?3?$AAE?$AAR?$AAR?$AA?$FN?$AA?5?$AAV?$AAF?$AAL?$AA_?$AAE?$AAr?$AAa?$AAs?$AAe?$AA?5?$AA?9?$AA?5?$AA_?$AAR?$AAe?$AAm?$AAa?$AAp?$AAB?$AAa?$AAd?$AAB@ 0002e4c0     VFL_MLC:VFLInterface.obj
 0001:0001d540       ??_C@_1EI@BHKHOJON@?$AA?$FL?$AAV?$AAF?$AAL?$AA?3?$AAE?$AAR?$AAR?$AA?$FN?$AA?5?$AA?5?$AAD?$AAo?$AAS?$AAy?$AAn?$AAc?$AA?$CI?$AAn?$AAB?$AAa?$AAn?$AAk?$AA?3?$AA?$CF?$AAd?$AA?$CJ?$AA?5?$AAf?$AAa?$AAi?$AAl@ 0002e540     VFL_MLC:VFLInterface.obj
 0001:0001d588       ??_C@_1FE@LKBALJHF@?$AA?$FL?$AAV?$AAF?$AAL?$AA?3?$AAE?$AAR?$AAR?$AA?$FN?$AA?5?$AA?5?$AA_?$AAS?$AAt?$AAo?$AAr?$AAe?$AAV?$AAF?$AAL?$AAC?$AAx?$AAt?$AA?$CI?$AAn?$AAB?$AAa?$AAn?$AAk?$AA?3?$AA?$CF?$AAd@ 0002e588     VFL_MLC:VFLInterface.obj
 0001:0001d5e0       ??_C@_1FI@IJMBADFJ@?$AA?$FL?$AAV?$AAF?$AAL?$AA?3?$AAE?$AAR?$AAR?$AA?$FN?$AA?5?$AA?5?$AA_?$AAR?$AAe?$AAp?$AAl?$AAa?$AAc?$AAe?$AAB?$AAa?$AAd?$AAB?$AAl?$AAk?$AA?$CI?$AAn?$AAB?$AAa?$AAn?$AAk?$AA?3@ 0002e5e0     VFL_MLC:VFLInterface.obj
 0001:0001d638       ??_C@_1GG@KAMBNOBD@?$AA?$FL?$AAV?$AAF?$AAL?$AA?3?$AAI?$AAN?$AAF?$AA?$FN?$AA?5?$AAV?$AAF?$AAL?$AA_?$AAE?$AAr?$AAa?$AAs?$AAe?$AA?5?$AAe?$AAr?$AAa?$AAs?$AAe?$AA?5?$AAf?$AAa?$AAi?$AAl?$AA?5?$AAo@ 0002e638     VFL_MLC:VFLInterface.obj
 0001:0001d6a0       ??_C@_1GK@HLFKFHHM@?$AA?$FL?$AAV?$AAF?$AAL?$AA?3?$AAE?$AAR?$AAR?$AA?$FN?$AA?5?$AAV?$AAF?$AAL?$AA_?$AAE?$AAr?$AAa?$AAs?$AAe?$AA?5?$AA?9?$AA?5?$AA_?$AAS?$AAt?$AAo?$AAr?$AAe?$AAV?$AAF?$AAL?$AAC@ 0002e6a0     VFL_MLC:VFLInterface.obj
 0001:0001d710       ??_C@_1GO@LBEAOENA@?$AA?$FL?$AAV?$AAF?$AAL?$AA?3?$AAE?$AAR?$AAR?$AA?$FN?$AA?5?$AAV?$AAF?$AAL?$AA_?$AAE?$AAr?$AAa?$AAs?$AAe?$AA?5?$AA?9?$AA?5?$AA_?$AAR?$AAe?$AAp?$AAl?$AAa?$AAc?$AAe?$AAB?$AAa@ 0002e710     VFL_MLC:VFLInterface.obj
 0001:0001d780       ??_C@_1GK@JALLNNDF@?$AA?$FL?$AAV?$AAF?$AAL?$AA?3?$AAI?$AAN?$AAF?$AA?$FN?$AA?5?$AAV?$AAF?$AAL?$AA_?$AAE?$AAr?$AAa?$AAs?$AAe?$AA?5?$AA?9?$AA?5?$AAe?$AAr?$AAa?$AAs?$AAe?$AA?5?$AAf?$AAa?$AAi?$AAl@ 0002e780     VFL_MLC:VFLInterface.obj
 0001:0001d7f0       ??_C@_1IG@EOAOMFEC@?$AA?$FL?$AAV?$AAF?$AAL?$AA?3?$AAE?$AAR?$AAR?$AA?$FN?$AA?5?$AAV?$AAF?$AAL?$AA_?$AAE?$AAr?$AAa?$AAs?$AAe?$AA?5?$AA?9?$AA?5?$AA_?$AAR?$AAe?$AAm?$AAa?$AAp?$AAB?$AAa?$AAd?$AAB@ 0002e7f0     VFL_MLC:VFLInterface.obj
 0001:0001d878       ??_C@_1FO@LHLKAAKM@?$AA?$FL?$AAV?$AAF?$AAL?$AA?3?$AAE?$AAR?$AAR?$AA?$FN?$AA?5?$AAV?$AAF?$AAL?$AA_?$AAE?$AAr?$AAa?$AAs?$AAe?$AA?5?$AA?9?$AA?5?$AAD?$AAo?$AAS?$AAy?$AAn?$AAc?$AA?$CI?$AAn?$AAB?$AAa@ 0002e878     VFL_MLC:VFLInterface.obj
 0001:0001d8d8       ??_C@_1IC@NBMOJNEB@?$AA?$FL?$AAV?$AAF?$AAL?$AA?3?$AAE?$AAR?$AAR?$AA?$FN?$AA?5?$AAV?$AAF?$AAL?$AA_?$AAC?$AAo?$AAp?$AAy?$AAb?$AAa?$AAc?$AAk?$AA?$CI?$AAn?$AAS?$AAr?$AAc?$AAV?$AAp?$AAn?$AA?3?$AA?$CF@ 0002e8d8     VFL_MLC:VFLInterface.obj
 0001:0001d960       ??_C@_1GA@CPPECIHC@?$AA?$FL?$AAV?$AAF?$AAL?$AA?3?$AAE?$AAR?$AAR?$AA?$FN?$AA?5?$AAV?$AAF?$AAL?$AA_?$AAC?$AAo?$AAp?$AAy?$AAb?$AAa?$AAc?$AAk?$AA?5?$AA?9?$AA?5?$AAS?$AAy?$AAn?$AAc?$AA?$CI?$AAn?$AAB@ 0002e960     VFL_MLC:VFLInterface.obj
 0001:0001d9c0       ??_C@_1FC@CMCEGLDE@?$AA?$FL?$AAV?$AAF?$AAL?$AA?3?$AAE?$AAR?$AAR?$AA?$FN?$AA?5?$AAV?$AAF?$AAL?$AA_?$AAC?$AAo?$AAp?$AAy?$AAb?$AAa?$AAc?$AAk?$AA?5?$AA?9?$AA?5?$AAB?$AAU?$AAF?$AA_?$AAG?$AAe?$AAt@ 0002e9c0     VFL_MLC:VFLInterface.obj
 0001:0001da18       ??_C@_1GA@JPFFEODD@?$AA?$FL?$AAV?$AAF?$AAL?$AA?3?$AAE?$AAR?$AAR?$AA?$FN?$AA?5?$AAV?$AAF?$AAL?$AA_?$AAC?$AAo?$AAp?$AAy?$AAb?$AAa?$AAc?$AAk?$AA?5?$AA?9?$AA?5?$AAR?$AAe?$AAa?$AAd?$AA?$CI?$AAn?$AAB@ 0002ea18     VFL_MLC:VFLInterface.obj
 0001:0001da78       ??_C@_1GE@LJKJEJLN@?$AA?$FL?$AAV?$AAF?$AAL?$AA?3?$AAE?$AAR?$AAR?$AA?$FN?$AA?5?$AAV?$AAF?$AAL?$AA_?$AAC?$AAo?$AAp?$AAy?$AAb?$AAa?$AAc?$AAk?$AA?5?$AA?9?$AA?5?$AAD?$AAo?$AAS?$AAy?$AAn?$AAc?$AA?$CI@ 0002ea78     VFL_MLC:VFLInterface.obj
 0001:0001dae0       ??_C@_1LM@JEDENOEG@?$AA?$FL?$AAV?$AAF?$AAL?$AA?3?$AAE?$AAR?$AAR?$AA?$FN?$AA?5?$AAV?$AAF?$AAL?$AA_?$AAC?$AAo?$AAp?$AAy?$AAb?$AAa?$AAc?$AAk?$AA?5?$AA?9?$AA?5?$AA?$CB?$AA?$CI?$AAn?$AAS?$AAr?$AAc?$AAP@ 0002eae0     VFL_MLC:VFLInterface.obj
 0001:0001dba0       ??_C@_1GG@NNIPGECJ@?$AA?$FL?$AAV?$AAF?$AAL?$AA?3?$AAE?$AAR?$AAR?$AA?$FN?$AA?5?$AAV?$AAF?$AAL?$AA_?$AAC?$AAo?$AAp?$AAy?$AAb?$AAa?$AAc?$AAk?$AA?5?$AA?9?$AA?5?$AA?$CB?$AA?$CI?$AAn?$AAS?$AAr?$AAc?$AAB@ 0002eba0     VFL_MLC:VFLInterface.obj
 0001:0001dc08       ??_C@_1JG@BAIPBHDI@?$AA?$FL?$AAV?$AAF?$AAL?$AA?3?$AAE?$AAR?$AAR?$AA?$FN?$AA?5?$AAV?$AAF?$AAL?$AA_?$AAC?$AAo?$AAp?$AAy?$AAb?$AAa?$AAc?$AAk?$AA?5?$AA?9?$AA?5?$AA?$CB?$AA?$CI?$AA?$CI?$AAp?$AAB?$AAu?$AAf@ 0002ec08     VFL_MLC:VFLInterface.obj
 0001:0001dca0       ??_C@_1GK@BFPMMCJB@?$AA?$FL?$AAV?$AAF?$AAL?$AA?3?$AAE?$AAR?$AAR?$AA?$FN?$AA?5?$AA_?$AAW?$AAr?$AAi?$AAt?$AAe?$AAI?$AAn?$AAi?$AAt?$AAB?$AAa?$AAd?$AAL?$AAi?$AAs?$AAt?$AA?5?$AA?9?$AA?5?$AAS?$AAy@ 0002eca0     VFL_MLC:VFLInterface.obj
 0001:0001dd10       ??_C@_1GC@EBCMNHBJ@?$AA?$FL?$AAV?$AAF?$AAL?$AA?3?$AAE?$AAR?$AAR?$AA?$FN?$AA?5?$AA_?$AAW?$AAr?$AAi?$AAt?$AAe?$AAI?$AAn?$AAi?$AAt?$AAB?$AAa?$AAd?$AAL?$AAi?$AAs?$AAt?$AA?5?$AA?9?$AA?5?$AAV?$AAF@ 0002ed10     VFL_MLC:VFLInterface.obj
 0001:0001dd78       ??_C@_1GA@NDNDFHHD@?$AA?$FL?$AAV?$AAF?$AAL?$AA?3?$AAE?$AAR?$AAR?$AA?$FN?$AA?5?$AA_?$AAW?$AAr?$AAi?$AAt?$AAe?$AAI?$AAn?$AAi?$AAt?$AAB?$AAa?$AAd?$AAL?$AAi?$AAs?$AAt?$AA?5?$AA?9?$AA?5?$AAB?$AAU@ 0002ed78     VFL_MLC:VFLInterface.obj
 0001:0001ddd8       ??_C@_1GC@LJBBCCFN@?$AA?$FL?$AAV?$AAF?$AAL?$AA?3?$AAE?$AAR?$AAR?$AA?$FN?$AA?5?$AAV?$AAF?$AAL?$AA_?$AAF?$AAo?$AAr?$AAm?$AAa?$AAt?$AA?5?$AA?9?$AA?5?$AA_?$AAW?$AAr?$AAi?$AAt?$AAe?$AAI?$AAn?$AAi@ 0002edd8     VFL_MLC:VFLInterface.obj
 0001:0001de40       ??_C@_1FI@OCHHCELL@?$AA?$FL?$AAV?$AAF?$AAL?$AA?3?$AAE?$AAR?$AAR?$AA?$FN?$AA?5?$AAV?$AAF?$AAL?$AA_?$AAF?$AAo?$AAr?$AAm?$AAa?$AAt?$AA?5?$AA?9?$AA?5?$AA_?$AAS?$AAt?$AAo?$AAr?$AAe?$AAV?$AAF?$AAL@ 0002ee40     VFL_MLC:VFLInterface.obj
 0001:0001de98       ??_C@_1FM@FHKEAIGE@?$AA?$FL?$AAV?$AAF?$AAL?$AA?3?$AAE?$AAR?$AAR?$AA?$FN?$AA?5?$AAV?$AAF?$AAL?$AA_?$AAF?$AAo?$AAr?$AAm?$AAa?$AAt?$AA?5?$AA?9?$AA?5?$AA_?$AAR?$AAe?$AAp?$AAl?$AAa?$AAc?$AAe?$AAB@ 0002ee98     VFL_MLC:VFLInterface.obj
 0001:0001def8       ??_C@_1GA@FDEFHAMK@?$AA?$FL?$AAV?$AAF?$AAL?$AA?3?$AAE?$AAR?$AAR?$AA?$FN?$AA?5?$AAV?$AAF?$AAL?$AA_?$AAF?$AAo?$AAr?$AAm?$AAa?$AAt?$AA?5?$AA?9?$AA?5?$AA_?$AAC?$AAh?$AAe?$AAc?$AAk?$AAI?$AAn?$AAi@ 0002eef8     VFL_MLC:VFLInterface.obj
 0001:0001df58       ??_C@_1EO@EMDKPNGM@?$AA?$FL?$AAV?$AAF?$AAL?$AA?3?$AAE?$AAR?$AAR?$AA?$FN?$AA?5?$AAV?$AAF?$AAL?$AA_?$AAF?$AAo?$AAr?$AAm?$AAa?$AAt?$AA?5?$AA?9?$AA?5?$AAB?$AAU?$AAF?$AA_?$AAG?$AAe?$AAt?$AA?5?$AAf@ 0002ef58     VFL_MLC:VFLInterface.obj
 0001:0001dfa8       ??_C@_1JA@KAOFANAF@?$AA?$FL?$AAB?$AAU?$AAF?$AA?3?$AAE?$AAR?$AAR?$AA?$FN?$AA?5?$AAB?$AAU?$AAF?$AA_?$AAI?$AAn?$AAi?$AAt?$AA?$CI?$AAV?$AAO?$AAI?$AAD?$AA?$CJ?$AA?5?$AAp?$AAB?$AAu?$AAf?$AAI?$AAd?$AAx@ 0002efa8     VFL_MLC:VFLBuffer.obj
 0001:0001e038       ??_C@_1HC@CDABEFHO@?$AA?$FL?$AAB?$AAU?$AAF?$AA?3?$AAE?$AAR?$AAR?$AA?$FN?$AA?5?$AAB?$AAU?$AAF?$AA_?$AAG?$AAe?$AAt?$AA?$CI?$AAe?$AAT?$AAy?$AAp?$AAe?$AA?5?$AA?$DN?$AA?5?$AA?$CF?$AAd?$AA?$CJ?$AA?5?$AAC?$AAa@ 0002f038     VFL_MLC:VFLBuffer.obj
 0001:0001e0b0       ??_C@_1GO@DJOOJDAI@?$AA?$FL?$AAB?$AAU?$AAF?$AA?3?$AAE?$AAR?$AAR?$AA?$FN?$AA?5?$AAB?$AAU?$AAF?$AA_?$AAG?$AAe?$AAt?$AA?$CI?$AA?$CB?$AA?$CI?$AAp?$AAs?$AAt?$AAB?$AAu?$AAf?$AAf?$AAe?$AAr?$AAC?$AAx?$AAt@ 0002f0b0     VFL_MLC:VFLBuffer.obj
 0001:0001e120       ??_C@_1II@GEENIAOJ@?$AAF?$AA?3?$AA?2?$AAW?$AAI?$AAN?$AAC?$AAE?$AA6?$AA0?$AA0?$AA?2?$AAP?$AAL?$AAA?$AAT?$AAF?$AAO?$AAR?$AAM?$AA?2?$AAS?$AAM?$AAD?$AAK?$AA6?$AA4?$AA1?$AA0?$AA_?$AAP?$AAM@ 0002f120     VFL_MLC:VFLBuffer.obj
 0001:0001e1a8       ??_C@_1IE@KHNNANFC@?$AA?$FL?$AAB?$AAU?$AAF?$AA?3?$AAE?$AAR?$AAR?$AA?$FN?$AA?5?$AAB?$AAU?$AAF?$AA_?$AAG?$AAe?$AAt?$AA?$CI?$AAe?$AAT?$AAy?$AAp?$AAe?$AA?5?$AA?$DN?$AA?5?$AA?$CF?$AAd?$AA?$CJ?$AA?5?$AAB?$AAu@ 0002f1a8     VFL_MLC:VFLBuffer.obj
 0001:0001e230       ??_C@_1BCC@OEOJCHIL@?$AA?$FL?$AAB?$AAU?$AAF?$AA?3?$AAE?$AAR?$AAR?$AA?$FN?$AA?5?$AAB?$AAU?$AAF?$AA_?$AAR?$AAe?$AAl?$AAe?$AAa?$AAs?$AAe?$AA?5?$AA?9?$AA?5?$AA?$CB?$AA?$CI?$AA?$CI?$AA?$CI?$AAp?$AAB?$AAu?$AAf@ 0002f230     VFL_MLC:VFLBuffer.obj
 0001:0001e358       ??_C@_1JG@MPGJIDDD@?$AA?$FL?$AAB?$AAU?$AAF?$AA?3?$AAE?$AAR?$AAR?$AA?$FN?$AA?5?$AAB?$AAU?$AAF?$AA_?$AAR?$AAe?$AAl?$AAe?$AAa?$AAs?$AAe?$AA?5?$AA?9?$AA?5?$AA?$CB?$AA?$CI?$AAp?$AAs?$AAt?$AAB?$AAu?$AAf@ 0002f358     VFL_MLC:VFLBuffer.obj
 0001:0001e3f0       ??_C@_1GC@JGNKKPCG@?$AA?$FL?$AAB?$AAU?$AAF?$AA?3?$AAE?$AAR?$AAR?$AA?$FN?$AA?5?$AAB?$AAU?$AAF?$AA_?$AAR?$AAe?$AAl?$AAe?$AAa?$AAs?$AAe?$AA?5?$AA?9?$AA?5?$AA?$CB?$AA?$CI?$AAp?$AAB?$AAu?$AAf?$AA?9?$AA?$DO@ 0002f3f0     VFL_MLC:VFLBuffer.obj
 0001:0001e458       ??_C@_1GC@OAMOAMKA@?$AA?$FL?$AAB?$AAU?$AAF?$AA?3?$AAE?$AAR?$AAR?$AA?$FN?$AA?5?$AAB?$AAU?$AAF?$AA_?$AAR?$AAe?$AAl?$AAe?$AAa?$AAs?$AAe?$AA?5?$AA?9?$AA?5?$AA?$CB?$AA?$CI?$AAp?$AAB?$AAu?$AAf?$AA?9?$AA?$DO@ 0002f458     VFL_MLC:VFLBuffer.obj
 0001:0001e4c0       ??_C@_1MA@GHGBPKCB@?$AA?$FL?$AAB?$AAU?$AAF?$AA?3?$AAE?$AAR?$AAR?$AA?$FN?$AA?5?$AAB?$AAU?$AAF?$AA_?$AAR?$AAe?$AAl?$AAe?$AAa?$AAs?$AAe?$AA?5?$AA?9?$AA?5?$AA?$CB?$AA?$CI?$AA?$CI?$AAp?$AAB?$AAu?$AAf?$AA?9@ 0002f4c0     VFL_MLC:VFLBuffer.obj
 0001:0001e580       ??_C@_1FA@CPMLEDPL@?$AA?$FL?$AAB?$AAU?$AAF?$AA?3?$AAE?$AAR?$AAR?$AA?$FN?$AA?5?$AAB?$AAU?$AAF?$AA_?$AAR?$AAe?$AAg?$AAe?$AAt?$AA?5?$AA?9?$AA?5?$AA?$CB?$AA?$CI?$AAp?$AAB?$AAu?$AAf?$AA?5?$AA?$CB?$AA?$DN?$AA?5@ 0002f580     VFL_MLC:VFLBuffer.obj
 0001:0001e6d0       ??_C@_1EE@JPNDBBOI@?$AA?$FL?$AAE?$AAR?$AAR?$AA?$FN?$AA?5?$AAO?$AAA?$AAM?$AA_?$AAA?$AAs?$AAs?$AAe?$AAr?$AAt?$AA?5?$AAE?$AAr?$AAr?$AAo?$AAr?$AA?5?$AA?$FL?$AA?$CF?$AAs?$AA?3?$AA?$CF?$AAd?$AA?$FN?$AA?$CB?$AA?$AN@ 0002f6d0     EbootWMROAM:EbootWMROAM.obj
 0001:0001e718       ??_C@_1IG@ONKGOJIK@?$AA?$AN?$AA?6?$AA?$DM?$AAl?$AAo?$AAg?$AA?5?$AAP?$AA1?$AA?$DN?$AA?$CC?$AA1?$AA0?$AA0?$AA?$CC?$AA?5?$AAP?$AA2?$AA?$DN?$AA?$CC?$AAE?$AAB?$AAo?$AAo?$AAt?$AAW?$AAM?$AAR?$AAO?$AAA?$AAM?$AA?$CC@ 0002f718     EbootWMROAM:EbootWMROAM.obj
 0001:0001e7a0       ??_C@_1DI@OGCDOJJI@?$AA?$FL?$AAF?$AAT?$AAL?$AA?3?$AAM?$AAS?$AAG?$AA?$FN?$AA?5?$AAV?$AAF?$AAL?$AA_?$AAO?$AAp?$AAe?$AAn?$AA?7?$AA?7?$AA?7?$AA?$FL?$AAO?$AAK?$AA?$FN?$AA?$AN?$AA?6?$AA?$AA@ 0002f7a0     bootpart:fmd_stub.obj
 0001:0001e7d8       ??_C@_1EA@NKPAOHFI@?$AA?$FL?$AAF?$AAT?$AAL?$AA?3?$AAE?$AAR?$AAR?$AA?$FN?$AA?5?$AAV?$AAe?$AAr?$AAs?$AAi?$AAo?$AAn?$AA?5?$AAF?$AAa?$AAi?$AAl?$AA?7?$AA?7?$AA?7?$AA?$FL?$AAO?$AAK?$AA?$FN?$AA?$AN?$AA?6?$AA?$AA@ 0002f7d8     bootpart:fmd_stub.obj
 0001:0001e818       ??_C@_1EE@JLNLIKBL@?$AA?$FL?$AAF?$AAT?$AAL?$AA?3?$AAM?$AAS?$AAG?$AA?$FN?$AA?5?$AAW?$AAr?$AAi?$AAt?$AAe?$AA?5?$AAS?$AAi?$AAg?$AAn?$AAa?$AAt?$AAu?$AAr?$AAe?$AA?7?$AA?7?$AA?$FL?$AAO?$AAK?$AA?$FN?$AA?$AN@ 0002f818     bootpart:fmd_stub.obj
 0001:0001e85c       ??_C@_1DM@ENHLJMGK@?$AA?$FL?$AAF?$AAT?$AAL?$AA?3?$AAM?$AAS?$AAG?$AA?$FN?$AA?5?$AAV?$AAF?$AAL?$AA_?$AAF?$AAo?$AAr?$AAm?$AAa?$AAt?$AA?7?$AA?7?$AA?7?$AA?$FL?$AAO?$AAK?$AA?$FN?$AA?$AN?$AA?6?$AA?$AA@ 0002f85c     bootpart:fmd_stub.obj
 0001:0001e898       ??_C@_1DE@HBIDBCDP@?$AA?$FL?$AAF?$AAT?$AAL?$AA?3?$AAM?$AAS?$AAG?$AA?$FN?$AA?5?$AAN?$AAo?$AAt?$AA?5?$AAF?$AAo?$AAr?$AAm?$AAa?$AAt?$AAe?$AAd?$AA?5?$AA?$CB?$AA?6?$AA?$AA@ 0002f898     bootpart:fmd_stub.obj
 0001:0001e8cc       ??_C@_1DI@KGNFELID@?$AA?$FL?$AAF?$AAT?$AAL?$AA?3?$AAM?$AAS?$AAG?$AA?$FN?$AA?5?$AAV?$AAF?$AAL?$AA_?$AAI?$AAn?$AAi?$AAt?$AA?7?$AA?7?$AA?7?$AA?$FL?$AAO?$AAK?$AA?$FN?$AA?$AN?$AA?6?$AA?$AA@ 0002f8cc     bootpart:fmd_stub.obj
 0001:0001e904       ??_C@_1DI@OMCFKCPA@?$AA?$FL?$AAF?$AAT?$AAL?$AA?3?$AAM?$AAS?$AAG?$AA?$FN?$AA?5?$AAB?$AAU?$AAF?$AA_?$AAI?$AAn?$AAi?$AAt?$AA?7?$AA?7?$AA?7?$AA?$FL?$AAO?$AAK?$AA?$FN?$AA?$AN?$AA?6?$AA?$AA@ 0002f904     bootpart:fmd_stub.obj
 0001:0001e93c       ??_C@_1DI@EHHIBBKM@?$AA?$FL?$AAF?$AAT?$AAL?$AA?3?$AAM?$AAS?$AAG?$AA?$FN?$AA?5?$AAF?$AAI?$AAL?$AA_?$AAI?$AAn?$AAi?$AAt?$AA?7?$AA?7?$AA?7?$AA?$FL?$AAO?$AAK?$AA?$FN?$AA?$AN?$AA?6?$AA?$AA@ 0002f93c     bootpart:fmd_stub.obj
 0001:0001e978       ??_C@_1FK@EBCOPCCE@?$AAB?$AAP?$AA_?$AAR?$AAe?$AAa?$AAd?$AAL?$AAo?$AAg?$AAi?$AAc?$AAa?$AAl?$AAS?$AAe?$AAc?$AAt?$AAo?$AAr?$AA?5?$AA?3?$AA?5?$AAW?$AAM?$AAR?$AA_?$AAI?$AAn?$AAi?$AAt?$AA?5@ 0002f978     bootpart:fmd_stub.obj
 0001:0001e9d8       ??_C@_1HO@KCCDLFK@?$AAF?$AAM?$AAD?$AA_?$AAR?$AAe?$AAa?$AAd?$AAS?$AAe?$AAc?$AAt?$AAo?$AAr?$AA?5?$AA?3?$AA?5?$AAp?$AAS?$AAe?$AAt?$AAo?$AAr?$AAB?$AAu?$AAf?$AAf?$AA?5?$AAn?$AAu?$AAl?$AAl@ 0002f9d8     bootpart:fmd_stub.obj
 0001:0001ea58       ??_C@_1GC@KICLAKLB@?$AA?$FL?$AAB?$AAO?$AAO?$AAT?$AAP?$AAA?$AAR?$AAT?$AA?3?$AAE?$AAR?$AAR?$AA?$FN?$AA?5?$AA?5?$AAV?$AAF?$AAL?$AA_?$AAR?$AAe?$AAa?$AAd?$AA?5?$AA?$CI?$AAV?$AAs?$AAn?$AA?$DN?$AA?$CF?$AAd@ 0002fa58     bootpart:fmd_stub.obj
 0001:0001eac0       ??_C@_1IA@ODBGIGGM@?$AAF?$AAM?$AAD?$AA_?$AAW?$AAr?$AAi?$AAt?$AAe?$AAS?$AAe?$AAc?$AAt?$AAo?$AAr?$AA?5?$AA?3?$AA?5?$AAp?$AAS?$AAe?$AAt?$AAo?$AAr?$AAB?$AAu?$AAf?$AAf?$AA?5?$AAn?$AAu?$AAl@ 0002fac0     bootpart:fmd_stub.obj
 0001:0001eb40       ??_C@_1GE@PKKJMFIA@?$AA?$FL?$AAB?$AAO?$AAO?$AAT?$AAP?$AAA?$AAR?$AAT?$AA?3?$AAE?$AAR?$AAR?$AA?$FN?$AA?5?$AA?5?$AAV?$AAF?$AAL?$AA_?$AAW?$AAr?$AAi?$AAt?$AAe?$AA?5?$AA?$CI?$AAV?$AAs?$AAn?$AA?$DN?$AA?$CF@ 0002fb40     bootpart:fmd_stub.obj
 0001:0001eba8       ??_C@_1GA@LOLIGFAN@?$AA?$FL?$AAE?$AAB?$AAO?$AAO?$AAT?$AA?3?$AAE?$AAR?$AAR?$AA?$FN?$AA?5?$AAV?$AAF?$AAL?$AA_?$AAE?$AAr?$AAa?$AAs?$AAe?$AA?5?$AAE?$AAr?$AAr?$AAo?$AAr?$AA?5?$AA?$CI?$AAB?$AAl?$AAk@ 0002fba8     bootpart:fmd_stub.obj
 0001:0001ec08       ??_C@_1GC@MDNPPGID@?$AAC?$AAr?$AAe?$AAa?$AAt?$AAe?$AAP?$AAa?$AAr?$AAt?$AAi?$AAt?$AAi?$AAo?$AAn?$AA?3?$AA?5?$AAc?$AAo?$AAu?$AAl?$AAd?$AA?5?$AAn?$AAo?$AAt?$AA?5?$AAw?$AAr?$AAi?$AAt?$AAe@ 0002fc08     bootpart:bootpart.obj
 0001:0001ec70       ??_C@_1EI@NOPNMCGI@?$AAW?$AAr?$AAi?$AAt?$AAe?$AAB?$AAl?$AAo?$AAc?$AAk?$AA?3?$AA?5?$AAd?$AAw?$AAM?$AAB?$AAR?$AAB?$AAl?$AAo?$AAc?$AAk?$AAN?$AAu?$AAm?$AA?5?$AA?$DN?$AA?5?$AA0?$AAx?$AA?$CF?$AAx@ 0002fc70     bootpart:bootpart.obj
 0001:0001ecb8       ??_C@_1FI@BIPOHIIN@?$AAC?$AAr?$AAe?$AAa?$AAt?$AAe?$AAP?$AAa?$AAr?$AAt?$AAi?$AAt?$AAi?$AAo?$AAn?$AA?3?$AA?5?$AAe?$AAr?$AAr?$AAo?$AAr?$AA?5?$AAe?$AAr?$AAa?$AAs?$AAi?$AAn?$AAg?$AA?5?$AAb@ 0002fcb8     bootpart:bootpart.obj
 0001:0001ed10       ??_C@_1DM@DFAJNBPM@?$AAW?$AAr?$AAi?$AAt?$AAe?$AAM?$AAB?$AAR?$AA?3?$AA?5?$AAM?$AAB?$AAR?$AA?5?$AAb?$AAl?$AAo?$AAc?$AAk?$AA?5?$AA?$DN?$AA?5?$AA0?$AAx?$AA?$CF?$AAx?$AA?4?$AA?$AN?$AA?6?$AA?$AA@ 0002fd10     bootpart:bootpart.obj
 0001:0001ed50       ??_C@_1EA@EKKBLFOM@?$AAI?$AAs?$AAV?$AAa?$AAl?$AAi?$AAd?$AAM?$AAB?$AAR?$AA?3?$AA?5?$AAM?$AAB?$AAR?$AA?5?$AAs?$AAe?$AAc?$AAt?$AAo?$AAr?$AA?5?$AA?$DN?$AA?5?$AA0?$AAx?$AA?$CF?$AAx?$AA?$AN?$AA?6?$AA?$AA@ 0002fd50     bootpart:bootpart.obj
 0001:0001ed90       ??_C@_1GG@GEEDMMEO@?$AAC?$AAr?$AAe?$AAa?$AAt?$AAe?$AAP?$AAa?$AAr?$AAt?$AAi?$AAt?$AAi?$AAo?$AAn?$AA?3?$AA?5?$AAE?$AAn?$AAt?$AAe?$AAr?$AA?5?$AAC?$AAr?$AAe?$AAa?$AAt?$AAe?$AAP?$AAa?$AAr@ 0002fd90     bootpart:bootpart.obj
 0001:0001edf8       ??_C@_1FK@OCFELNLC@?$AAC?$AAr?$AAe?$AAa?$AAt?$AAe?$AAP?$AAa?$AAr?$AAt?$AAi?$AAt?$AAi?$AAo?$AAn?$AA?3?$AA?5?$AAS?$AAt?$AAa?$AAr?$AAt?$AA?5?$AA?$DN?$AA?5?$AA0?$AAx?$AA?$CF?$AAx?$AA?0?$AA?5?$AAN@ 0002fdf8     bootpart:bootpart.obj
 0001:0001ee58       ??_C@_1EI@FKPPIOJ@?$AAB?$AAP?$AA_?$AAW?$AAr?$AAi?$AAt?$AAe?$AAD?$AAa?$AAt?$AAa?$AA?3?$AA?5?$AAd?$AAw?$AAS?$AAe?$AAc?$AAt?$AAo?$AAr?$AAA?$AAd?$AAd?$AAr?$AA?5?$AA?$DN?$AA?5?$AA0?$AAx?$AA?$CF@ 0002fe58     bootpart:bootpart.obj
 0001:0001eea0       ??_C@_1EA@DBIHACCH@?$AAB?$AAP?$AA_?$AAW?$AAr?$AAi?$AAt?$AAe?$AAD?$AAa?$AAt?$AAa?$AA?3?$AA?5?$AAp?$AAb?$AAB?$AAu?$AAf?$AAf?$AAe?$AAr?$AA?5?$AA?$DN?$AA?5?$AA0?$AAx?$AA?$CF?$AAx?$AA?$AN?$AA?6?$AA?$AA@ 0002fea0     bootpart:bootpart.obj
 0001:0001eee0       ??_C@_1EO@EMKELDB@?$AAB?$AAP?$AA_?$AAW?$AAr?$AAi?$AAt?$AAe?$AAD?$AAa?$AAt?$AAa?$AA?3?$AA?5?$AAd?$AAw?$AAN?$AAu?$AAm?$AAE?$AAx?$AAt?$AAr?$AAa?$AAB?$AAy?$AAt?$AAe?$AAs?$AA?5?$AA?$DN?$AA?5@ 0002fee0     bootpart:bootpart.obj
 0001:0001ef30       ??_C@_1GC@PJKIACI@?$AA?$FL?$AAO?$AAN?$AAW?$AA?3?$AA?5?$AAE?$AAR?$AAR?$AA?$FN?$AA?5?$AA?5?$AAF?$AAM?$AAD?$AA_?$AAW?$AAr?$AAi?$AAt?$AAe?$AAS?$AAe?$AAc?$AAt?$AAo?$AAr?$AA?5?$AAE?$AAr?$AAr?$AAo@ 0002ff30     bootpart:bootpart.obj
 0001:0001ef98       ??_C@_1EE@NFJDFFAL@?$AAB?$AAP?$AA_?$AAW?$AAr?$AAi?$AAt?$AAe?$AAD?$AAa?$AAt?$AAa?$AA?3?$AA?5?$AAd?$AAw?$AAN?$AAu?$AAm?$AAS?$AAe?$AAc?$AAt?$AAs?$AA?5?$AA?$DN?$AA?5?$AA0?$AAx?$AA?$CF?$AAx?$AA?$AN@ 0002ff98     bootpart:bootpart.obj
 0001:0001efe0       ??_C@_1FG@HFCOEHHD@?$AAW?$AAr?$AAi?$AAt?$AAe?$AAD?$AAa?$AAt?$AAa?$AA?3?$AA?5?$AAf?$AAa?$AAi?$AAl?$AAd?$AA?5?$AAt?$AAo?$AA?5?$AAw?$AAr?$AAi?$AAt?$AAe?$AA?5?$AAs?$AAe?$AAc?$AAt?$AAo?$AAr@ 0002ffe0     bootpart:bootpart.obj
 0001:0001f038       ??_C@_1FG@GKKMIFGC@?$AAW?$AAr?$AAi?$AAt?$AAe?$AAD?$AAa?$AAt?$AAa?$AA?3?$AA?5?$AAf?$AAa?$AAi?$AAl?$AAe?$AAd?$AA?5?$AAt?$AAo?$AA?5?$AAr?$AAe?$AAa?$AAd?$AA?5?$AAs?$AAe?$AAc?$AAt?$AAo?$AAr@ 00030038     bootpart:bootpart.obj
 0001:0001f090       ??_C@_1HI@ODJGGDPJ@?$AAB?$AAP?$AA_?$AAW?$AAr?$AAi?$AAt?$AAe?$AAD?$AAa?$AAt?$AAa?$AA?3?$AA?5?$AAd?$AAw?$AAS?$AAe?$AAc?$AAt?$AAo?$AAr?$AAA?$AAd?$AAd?$AAr?$AA?5?$AA?$DN?$AA?5?$AA0?$AAx?$AA?$CF@ 00030090     bootpart:bootpart.obj
 0001:0001f108       ??_C@_1JI@DGALGKGO@?$AAR?$AAe?$AAa?$AAd?$AAD?$AAa?$AAt?$AAa?$AA?3?$AA?5?$AAt?$AAr?$AAy?$AAi?$AAn?$AAg?$AA?5?$AAt?$AAo?$AA?5?$AAr?$AAe?$AAa?$AAd?$AA?5?$AAp?$AAa?$AAs?$AAt?$AA?5?$AAe?$AAn@ 00030108     bootpart:bootpart.obj
 0001:0001f1a0       ??_C@_1FK@DGANKNPB@?$AAB?$AAP?$AA_?$AAW?$AAr?$AAi?$AAt?$AAe?$AAD?$AAa?$AAt?$AAa?$AA?3?$AA?5?$AAS?$AAt?$AAa?$AAr?$AAt?$AA?5?$AA?$DN?$AA?5?$AA0?$AAx?$AA?$CF?$AAx?$AA?0?$AA?5?$AAL?$AAe?$AAn?$AAg@ 000301a0     bootpart:bootpart.obj
 0001:0001f200       ??_C@_1GG@GKCEOFHB@?$AAp?$AAP?$AAa?$AAr?$AAt?$AAS?$AAt?$AAa?$AAt?$AAe?$AA?9?$AA?$DO?$AAp?$AAP?$AAa?$AAr?$AAt?$AAE?$AAn?$AAt?$AAr?$AAy?$AA?9?$AA?$DO?$AAP?$AAa?$AAr?$AAt?$AA_?$AAT?$AAo?$AAt@ 00030200     bootpart:bootpart.obj
 0001:0001f268       ??_C@_1FC@CJGJGHLC@?$AAg?$AA_?$AAF?$AAl?$AAa?$AAs?$AAh?$AAI?$AAn?$AAf?$AAo?$AA?4?$AAw?$AAD?$AAa?$AAt?$AAa?$AAB?$AAy?$AAt?$AAe?$AAs?$AAP?$AAe?$AAr?$AAS?$AAe?$AAc?$AAt?$AAo?$AAr?$AA?5@ 00030268     bootpart:bootpart.obj
 0001:0001f2c0       ??_C@_1KK@FOHFOBJA@?$AAp?$AAP?$AAa?$AAr?$AAt?$AAS?$AAt?$AAa?$AAt?$AAe?$AA?9?$AA?$DO?$AAp?$AAP?$AAa?$AAr?$AAt?$AAE?$AAn?$AAt?$AAr?$AAy?$AA?9?$AA?$DO?$AAP?$AAa?$AAr?$AAt?$AA_?$AAT?$AAo?$AAt@ 000302c0     bootpart:bootpart.obj
 0001:0001f36c       ??_C@_1DI@CLPKBFBH@?$AAB?$AAP?$AA_?$AAS?$AAe?$AAt?$AAD?$AAa?$AAt?$AAa?$AAP?$AAo?$AAi?$AAn?$AAt?$AAe?$AAr?$AA?5?$AAa?$AAt?$AA?5?$AA0?$AAx?$AA?$CF?$AAx?$AA?$AN?$AA?6?$AA?$AA@ 0003036c     bootpart:bootpart.obj
 0001:0001f3a8       ??_C@_1EK@EPBADBPH@?$AAB?$AAP?$AA_?$AAI?$AAn?$AAi?$AAt?$AA?5?$AAF?$AAa?$AAi?$AAl?$AAs?$AA?5?$AAF?$AAM?$AAD?$AA_?$AAG?$AAe?$AAt?$AAI?$AAn?$AAf?$AAo?$AA?5?$AAf?$AAa?$AAi?$AAl?$AAs?$AA?$CB@ 000303a8     bootpart:bootpart.obj
 0001:0001f3f8       ??_C@_1EG@DJFOPAAE@?$AAB?$AAP?$AA_?$AAI?$AAn?$AAi?$AAt?$AA?5?$AAF?$AAa?$AAi?$AAl?$AAs?$AA?5?$AAN?$AAo?$AA?5?$AAm?$AAe?$AAm?$AAo?$AAr?$AAy?$AA?5?$AAf?$AAa?$AAi?$AAl?$AAs?$AA?$CB?$AA?$CB?$AA?$CB@ 000303f8     bootpart:bootpart.obj
 0001:0001f440       ??_C@_1HA@FAGJLMKN@?$AAB?$AAP?$AA_?$AAL?$AAo?$AAw?$AAL?$AAe?$AAv?$AAe?$AAl?$AAF?$AAo?$AAr?$AAm?$AAa?$AAt?$AA?3?$AA?5?$AA?1?$AA?1?$AA?5?$AAE?$AAr?$AAa?$AAs?$AAe?$AA?5?$AAa?$AAl?$AAl?$AA?5@ 00030440     bootpart:bootpart.obj
 0001:0001f4b0       ??_C@_1BE@MNCLLFEJ@?$AAD?$AAo?$AAn?$AAe?$AA?4?$AA?$AN?$AA?6?$AA?$AN?$AA?6?$AA?$AA@ 000304b0     bootpart:bootpart.obj
 0001:0001f4c8       ??_C@_1EK@EBNKGIND@?$AAE?$AAn?$AAt?$AAe?$AAr?$AA?5?$AAL?$AAo?$AAw?$AAL?$AAe?$AAv?$AAe?$AAl?$AAF?$AAo?$AAr?$AAm?$AAa?$AAt?$AA?5?$AA?$FL?$AA0?$AAx?$AA?$CF?$AAx?$AA?0?$AA?5?$AA0?$AAx?$AA?$CF?$AAx@ 000304c8     bootpart:bootpart.obj
 0001:0001f518       ??_C@_1GI@JACEJNA@?$AAB?$AAP?$AA_?$AAL?$AAo?$AAw?$AAL?$AAe?$AAv?$AAe?$AAl?$AAF?$AAo?$AAr?$AAm?$AAa?$AAt?$AA?3?$AA?5?$AA?1?$AA?1?$AA?5?$AAE?$AAr?$AAa?$AAs?$AAe?$AA?5?$AAa?$AAl?$AAl?$AA?5@ 00030518     bootpart:bootpart.obj
 0001:0001f580       ??_C@_1GC@PMFDHBOJ@?$AAO?$AAp?$AAe?$AAn?$AAP?$AAa?$AAr?$AAt?$AAi?$AAt?$AAi?$AAo?$AAn?$AA?3?$AA?5?$AAI?$AAn?$AAv?$AAa?$AAl?$AAi?$AAd?$AA?5?$AAM?$AAB?$AAR?$AA?4?$AA?5?$AA?5?$AAF?$AAo?$AAr@ 00030580     bootpart:bootpart.obj
 0001:0001f5e8       ??_C@_1II@LNLPMCGG@?$AAO?$AAp?$AAe?$AAn?$AAP?$AAa?$AAr?$AAt?$AAi?$AAt?$AAi?$AAo?$AAn?$AA?3?$AA?5?$AAI?$AAn?$AAv?$AAa?$AAl?$AAi?$AAd?$AA?5?$AAM?$AAB?$AAR?$AA?4?$AA?5?$AA?5?$AAC?$AAa?$AAn@ 000305e8     bootpart:bootpart.obj
 0001:0001f670       ??_C@_1EO@POLHBNMA@?$AAO?$AAp?$AAe?$AAn?$AAP?$AAa?$AAr?$AAt?$AAi?$AAt?$AAi?$AAo?$AAn?$AA?3?$AA?5?$AAd?$AAw?$AAS?$AAt?$AAa?$AAr?$AAt?$AAS?$AAe?$AAc?$AAt?$AAo?$AAr?$AA?5?$AA?$DN?$AA?5?$AA0@ 00030670     bootpart:bootpart.obj
 0001:0001f6c0       ??_C@_1EM@MOHOHICG@?$AAO?$AAp?$AAe?$AAn?$AAP?$AAa?$AAr?$AAt?$AAi?$AAt?$AAi?$AAo?$AAn?$AA?3?$AA?5?$AAd?$AAw?$AAN?$AAu?$AAm?$AAS?$AAe?$AAc?$AAt?$AAo?$AAr?$AAs?$AA?5?$AA?$DN?$AA?5?$AA0?$AAx@ 000306c0     bootpart:bootpart.obj
 0001:0001f710       ??_C@_1EI@BOAKMAJL@?$AAO?$AAp?$AAe?$AAn?$AAP?$AAa?$AAr?$AAt?$AAi?$AAt?$AAi?$AAo?$AAn?$AA?3?$AA?5?$AAd?$AAw?$AAP?$AAa?$AAr?$AAt?$AAT?$AAy?$AAp?$AAe?$AA?5?$AA?$DN?$AA?5?$AA0?$AAx?$AA?$CF?$AAx@ 00030710     bootpart:bootpart.obj
 0001:0001f758       ??_C@_1EC@CNDBGLBC@?$AAO?$AAp?$AAe?$AAn?$AAP?$AAa?$AAr?$AAt?$AAi?$AAt?$AAi?$AAo?$AAn?$AA?3?$AA?5?$AAf?$AAA?$AAc?$AAt?$AAi?$AAv?$AAe?$AA?5?$AA?$DN?$AA?5?$AA0?$AAx?$AA?$CF?$AAx?$AA?4?$AA?$AN?$AA?6@ 00030758     bootpart:bootpart.obj
 0001:0001f7a0       ??_C@_1FC@GAJOODAI@?$AAO?$AAp?$AAe?$AAn?$AAP?$AAa?$AAr?$AAt?$AAi?$AAt?$AAi?$AAo?$AAn?$AA?3?$AA?5?$AAd?$AAw?$AAC?$AAr?$AAe?$AAa?$AAt?$AAi?$AAo?$AAn?$AAF?$AAl?$AAa?$AAg?$AAs?$AA?5?$AA?$DN@ 000307a0     bootpart:bootpart.obj
 0001:0001f7f8       ??_C@_1IM@LEKKEFDD@?$AA?$FL?$AAW?$AAM?$AAR?$AA?3?$AAI?$AAN?$AAF?$AA?$FN?$AA?5?$AAW?$AAM?$AAR?$AA_?$AAF?$AAo?$AAr?$AAm?$AAa?$AAt?$AA_?$AAF?$AAI?$AAL?$AA?$CI?$AA?$CJ?$AA?5?$AA?3?$AA?5?$AAA?$AAl?$AAl@ 000307f8     WMR_Utils:WMR_Utils.obj
 0001:0001f884       ??_C@_1DO@HPLMONFD@?$AA?$FL?$AAW?$AAM?$AAR?$AA?5?$AA?5?$AA?5?$AA?5?$AA?$FN?$AA?5?$AA?9?$AA?9?$AAW?$AAM?$AAR?$AA_?$AAF?$AAo?$AAr?$AAm?$AAa?$AAt?$AA_?$AAF?$AAI?$AAL?$AA?$CI?$AA?$CJ?$AA?$AN?$AA?6?$AA?$AA@ 00030884     WMR_Utils:WMR_Utils.obj
 0001:0001f8c8       ??_C@_1HO@NKDNKEMM@?$AA?$FL?$AAW?$AAM?$AAR?$AA?3?$AAI?$AAN?$AAF?$AA?$FN?$AA?5?$AAW?$AAM?$AAR?$AA_?$AAF?$AAo?$AAr?$AAm?$AAa?$AAt?$AA_?$AAF?$AAI?$AAL?$AA?$CI?$AA?$CJ?$AA?5?$AA?3?$AA?5?$AAA?$AAl?$AAl@ 000308c8     WMR_Utils:WMR_Utils.obj
 0001:0001f948       ??_C@_1II@BDKAHOEK@?$AA?$FL?$AAW?$AAM?$AAR?$AA?3?$AAI?$AAN?$AAF?$AA?$FN?$AA?5?$AAW?$AAM?$AAR?$AA_?$AAF?$AAo?$AAr?$AAm?$AAa?$AAt?$AA_?$AAF?$AAI?$AAL?$AA?$CI?$AA?$CJ?$AA?5?$AA?3?$AA?5?$AAI?$AAn?$AAi@ 00030948     WMR_Utils:WMR_Utils.obj
 0001:0001f9d0       ??_C@_1IG@HEJAIHIM@?$AA?$FL?$AAW?$AAM?$AAR?$AA?3?$AAI?$AAN?$AAF?$AA?$FN?$AA?5?$AAW?$AAM?$AAR?$AA_?$AAF?$AAo?$AAr?$AAm?$AAa?$AAt?$AA_?$AAF?$AAI?$AAL?$AA?$CI?$AA?$CJ?$AA?5?$AA?3?$AA?5?$AAI?$AAn?$AAi@ 000309d0     WMR_Utils:WMR_Utils.obj
 0001:0001fa58       ??_C@_1IG@HPDPLNLL@?$AA?$FL?$AAW?$AAM?$AAR?$AA?3?$AAI?$AAN?$AAF?$AA?$FN?$AA?5?$AAW?$AAM?$AAR?$AA_?$AAF?$AAo?$AAr?$AAm?$AAa?$AAt?$AA_?$AAF?$AAI?$AAL?$AA?$CI?$AA?$CJ?$AA?5?$AA?3?$AA?5?$AAI?$AAn?$AAi@ 00030a58     WMR_Utils:WMR_Utils.obj
 0001:0001fae0       ??_C@_1DO@FKLCJKKF@?$AA?$FL?$AAW?$AAM?$AAR?$AA?5?$AA?5?$AA?5?$AA?5?$AA?$FN?$AA?5?$AA?$CL?$AA?$CL?$AAW?$AAM?$AAR?$AA_?$AAF?$AAo?$AAr?$AAm?$AAa?$AAt?$AA_?$AAF?$AAI?$AAL?$AA?$CI?$AA?$CJ?$AA?$AN?$AA?6?$AA?$AA@ 00030ae0     WMR_Utils:WMR_Utils.obj
 0001:0001fb20       ??_C@_1JC@KCBDKGPE@?$AA?$FL?$AAW?$AAM?$AAR?$AA?3?$AAI?$AAN?$AAF?$AA?$FN?$AA?5?$AAW?$AAM?$AAR?$AA_?$AAE?$AAR?$AAA?$AAS?$AAE?$AA_?$AAV?$AAF?$AAL?$AAA?$AAR?$AAE?$AAA?$AA?$CI?$AA?$CJ?$AA?5?$AA?3?$AA?5@ 00030b20     WMR_Utils:WMR_Utils.obj
 0001:0001fbb8       ??_C@_1EE@IKJNBCOJ@?$AA?$FL?$AAW?$AAM?$AAR?$AA?5?$AA?5?$AA?5?$AA?5?$AA?$FN?$AA?5?$AA?9?$AA?9?$AAW?$AAM?$AAR?$AA_?$AAE?$AAR?$AAA?$AAS?$AAE?$AA_?$AAV?$AAF?$AAL?$AAA?$AAR?$AAE?$AAA?$AA?$CI?$AA?$CJ?$AA?$AN@ 00030bb8     WMR_Utils:WMR_Utils.obj
 0001:0001fc00       ??_C@_1IE@EENFOELJ@?$AA?$FL?$AAW?$AAM?$AAR?$AA?3?$AAI?$AAN?$AAF?$AA?$FN?$AA?5?$AAW?$AAM?$AAR?$AA_?$AAE?$AAR?$AAA?$AAS?$AAE?$AA_?$AAV?$AAF?$AAL?$AAA?$AAR?$AAE?$AAA?$AA?$CI?$AA?$CJ?$AA?5?$AA?3?$AA?5@ 00030c00     WMR_Utils:WMR_Utils.obj
 0001:0001fc88       ??_C@_1IO@DCJAAACE@?$AA?$FL?$AAW?$AAM?$AAR?$AA?3?$AAI?$AAN?$AAF?$AA?$FN?$AA?5?$AAW?$AAM?$AAR?$AA_?$AAE?$AAR?$AAA?$AAS?$AAE?$AA_?$AAV?$AAF?$AAL?$AAA?$AAR?$AAE?$AAA?$AA?$CI?$AA?$CJ?$AA?5?$AA?3?$AA?5@ 00030c88     WMR_Utils:WMR_Utils.obj
 0001:0001fd18       ??_C@_1IM@EAAKGNJP@?$AA?$FL?$AAW?$AAM?$AAR?$AA?3?$AAI?$AAN?$AAF?$AA?$FN?$AA?5?$AAW?$AAM?$AAR?$AA_?$AAE?$AAR?$AAA?$AAS?$AAE?$AA_?$AAV?$AAF?$AAL?$AAA?$AAR?$AAE?$AAA?$AA?$CI?$AA?$CJ?$AA?5?$AA?3?$AA?5@ 00030d18     WMR_Utils:WMR_Utils.obj
 0001:0001fda8       ??_C@_1IM@ELKFFHKI@?$AA?$FL?$AAW?$AAM?$AAR?$AA?3?$AAI?$AAN?$AAF?$AA?$FN?$AA?5?$AAW?$AAM?$AAR?$AA_?$AAE?$AAR?$AAA?$AAS?$AAE?$AA_?$AAV?$AAF?$AAL?$AAA?$AAR?$AAE?$AAA?$AA?$CI?$AA?$CJ?$AA?5?$AA?3?$AA?5@ 00030da8     WMR_Utils:WMR_Utils.obj
 0001:0001fe38       ??_C@_1EE@NMPNCHAK@?$AA?$FL?$AAW?$AAM?$AAR?$AA?5?$AA?5?$AA?5?$AA?5?$AA?$FN?$AA?5?$AA?$CL?$AA?$CL?$AAW?$AAM?$AAR?$AA_?$AAE?$AAR?$AAA?$AAS?$AAE?$AA_?$AAV?$AAF?$AAL?$AAA?$AAR?$AAE?$AAA?$AA?$CI?$AA?$CJ?$AA?$AN@ 00030e38     WMR_Utils:WMR_Utils.obj
 0001:0001fe80       ??_C@_1GE@HOLDJBHO@?$AA?$FL?$AAW?$AAM?$AAR?$AA?3?$AAE?$AAR?$AAR?$AA?$FN?$AA?5?$AAW?$AAM?$AAR?$AA_?$AAF?$AAo?$AAr?$AAm?$AAa?$AAt?$AA_?$AAV?$AAF?$AAL?$AA?$CI?$AA?$CJ?$AA?5?$AA?3?$AA?5?$AAV?$AAF?$AAL@ 00030e80     WMR_Utils:WMR_Utils.obj
 0001:0001fee8       ??_C@_1GI@PINFENML@?$AA?$FL?$AAW?$AAM?$AAR?$AA?3?$AAE?$AAR?$AAR?$AA?$FN?$AA?5?$AAW?$AAM?$AAR?$AA_?$AAF?$AAo?$AAr?$AAm?$AAa?$AAt?$AA_?$AAV?$AAF?$AAL?$AA?$CI?$AA?$CJ?$AA?5?$AA?3?$AA?5?$AAV?$AAF?$AAL@ 00030ee8     WMR_Utils:WMR_Utils.obj
 0001:0001ff50       ??_C@_1DO@MPAPGHDL@?$AA?$FL?$AAW?$AAM?$AAR?$AA?5?$AA?5?$AA?5?$AA?5?$AA?$FN?$AA?5?$AA?9?$AA?9?$AAW?$AAM?$AAR?$AA_?$AAF?$AAo?$AAr?$AAm?$AAa?$AAt?$AA_?$AAV?$AAF?$AAL?$AA?$CI?$AA?$CJ?$AA?$AN?$AA?6?$AA?$AA@ 00030f50     WMR_Utils:WMR_Utils.obj
 0001:0001ff90       ??_C@_1HI@NPDAGIMM@?$AA?$FL?$AAW?$AAM?$AAR?$AA?3?$AAE?$AAR?$AAR?$AA?$FN?$AA?5?$AAW?$AAM?$AAR?$AA_?$AAF?$AAo?$AAr?$AAm?$AAa?$AAt?$AA_?$AAV?$AAF?$AAL?$AA?$CI?$AA?$CJ?$AA?5?$AA?3?$AA?5?$AAW?$AAM?$AAR@ 00030f90     WMR_Utils:WMR_Utils.obj
 0001:00020008       ??_C@_1GI@PKHNJOLL@?$AA?$FL?$AAW?$AAM?$AAR?$AA?3?$AAI?$AAN?$AAF?$AA?$FN?$AA?5?$AAW?$AAM?$AAR?$AA_?$AAF?$AAo?$AAr?$AAm?$AAa?$AAt?$AA_?$AAV?$AAF?$AAL?$AA?$CI?$AA?$CJ?$AA?5?$AA?3?$AA?5?$AAV?$AAF?$AAL@ 00031008     WMR_Utils:WMR_Utils.obj
 0001:00020070       ??_C@_1GE@BFEMJCNC@?$AA?$FL?$AAW?$AAM?$AAR?$AA?3?$AAI?$AAN?$AAF?$AA?$FN?$AA?5?$AAW?$AAM?$AAR?$AA_?$AAF?$AAo?$AAr?$AAm?$AAa?$AAt?$AA_?$AAV?$AAF?$AAL?$AA?$CI?$AA?$CJ?$AA?5?$AA?3?$AA?5?$AAV?$AAF?$AAL@ 00031070     WMR_Utils:WMR_Utils.obj
 0001:000200d4       ??_C@_1DO@OKABBAMN@?$AA?$FL?$AAW?$AAM?$AAR?$AA?5?$AA?5?$AA?5?$AA?5?$AA?$FN?$AA?5?$AA?$CL?$AA?$CL?$AAW?$AAM?$AAR?$AA_?$AAF?$AAo?$AAr?$AAm?$AAa?$AAt?$AA_?$AAV?$AAF?$AAL?$AA?$CI?$AA?$CJ?$AA?$AN?$AA?6?$AA?$AA@ 000310d4     WMR_Utils:WMR_Utils.obj
 0001:00020118       ??_C@_1GE@FCMGCJAI@?$AA?$FL?$AAW?$AAM?$AAR?$AA?3?$AAE?$AAR?$AAR?$AA?$FN?$AA?5?$AAW?$AAM?$AAR?$AA_?$AAF?$AAo?$AAr?$AAm?$AAa?$AAt?$AA_?$AAF?$AAT?$AAL?$AA?$CI?$AA?$CJ?$AA?5?$AA?3?$AA?5?$AAF?$AAT?$AAL@ 00031118     WMR_Utils:WMR_Utils.obj
 0001:00020180       ??_C@_1GI@BNFMPMHD@?$AA?$FL?$AAW?$AAM?$AAR?$AA?3?$AAE?$AAR?$AAR?$AA?$FN?$AA?5?$AAW?$AAM?$AAR?$AA_?$AAF?$AAo?$AAr?$AAm?$AAa?$AAt?$AA_?$AAF?$AAT?$AAL?$AA?$CI?$AA?$CJ?$AA?5?$AA?3?$AA?5?$AAF?$AAT?$AAL@ 00031180     WMR_Utils:WMR_Utils.obj
 0001:000201e8       ??_C@_1GE@OCKHNDBN@?$AA?$FL?$AAW?$AAM?$AAR?$AA?3?$AAE?$AAR?$AAR?$AA?$FN?$AA?5?$AAW?$AAM?$AAR?$AA_?$AAF?$AAo?$AAr?$AAm?$AAa?$AAt?$AA_?$AAF?$AAT?$AAL?$AA?$CI?$AA?$CJ?$AA?5?$AA?3?$AA?5?$AAF?$AAT?$AAL@ 000311e8     WMR_Utils:WMR_Utils.obj
 0001:00020250       ??_C@_1GE@IJFINALB@?$AA?$FL?$AAW?$AAM?$AAR?$AA?3?$AAI?$AAN?$AAF?$AA?$FN?$AA?5?$AAW?$AAM?$AAR?$AA_?$AAF?$AAo?$AAr?$AAm?$AAa?$AAt?$AA_?$AAF?$AAT?$AAL?$AA?$CI?$AA?$CJ?$AA?5?$AA?3?$AA?5?$AAF?$AAT?$AAL@ 00031250     WMR_Utils:WMR_Utils.obj
 0001:000202b8       ??_C@_1GI@BPPECPAD@?$AA?$FL?$AAW?$AAM?$AAR?$AA?3?$AAI?$AAN?$AAF?$AA?$FN?$AA?5?$AAW?$AAM?$AAR?$AA_?$AAF?$AAo?$AAr?$AAm?$AAa?$AAt?$AA_?$AAF?$AAT?$AAL?$AA?$CI?$AA?$CJ?$AA?5?$AA?3?$AA?5?$AAF?$AAT?$AAL@ 000312b8     WMR_Utils:WMR_Utils.obj
 0001:00020320       ??_C@_1DO@KOPEKBGE@?$AA?$FL?$AAW?$AAM?$AAR?$AA?5?$AA?5?$AA?5?$AA?5?$AA?$FN?$AA?5?$AA?9?$AA?9?$AAW?$AAM?$AAR?$AA_?$AAF?$AAo?$AAr?$AAm?$AAa?$AAt?$AA_?$AAF?$AAT?$AAL?$AA?$CI?$AA?$CJ?$AA?$AN?$AA?6?$AA?$AA@ 00031320     WMR_Utils:WMR_Utils.obj
 0001:00020360       ??_C@_1GE@DJDJCKKE@?$AA?$FL?$AAW?$AAM?$AAR?$AA?3?$AAI?$AAN?$AAF?$AA?$FN?$AA?5?$AAW?$AAM?$AAR?$AA_?$AAF?$AAo?$AAr?$AAm?$AAa?$AAt?$AA_?$AAF?$AAT?$AAL?$AA?$CI?$AA?$CJ?$AA?5?$AA?3?$AA?5?$AAF?$AAT?$AAL@ 00031360     WMR_Utils:WMR_Utils.obj
 0001:000203c8       ??_C@_1IE@LHAGMJBF@?$AA?$FL?$AAW?$AAM?$AAR?$AA?3?$AAI?$AAN?$AAF?$AA?$FN?$AA?5?$AAW?$AAM?$AAR?$AA_?$AAF?$AAo?$AAr?$AAm?$AAa?$AAt?$AA_?$AAF?$AAT?$AAL?$AA?$CI?$AA?$CJ?$AA?5?$AA?3?$AA?5?$AAA?$AAl?$AAl@ 000313c8     WMR_Utils:WMR_Utils.obj
 0001:00020450       ??_C@_1IM@POKPKPLO@?$AA?$FL?$AAW?$AAM?$AAR?$AA?3?$AAE?$AAR?$AAR?$AA?$FN?$AA?5?$AAW?$AAM?$AAR?$AA_?$AAF?$AAo?$AAr?$AAm?$AAa?$AAt?$AA_?$AAF?$AAT?$AAL?$AA?$CI?$AA?$CJ?$AA?5?$AA?3?$AA?5?$AAV?$AAF?$AAL@ 00031450     WMR_Utils:WMR_Utils.obj
 0001:000204dc       ??_C@_1DO@ILPKNGJC@?$AA?$FL?$AAW?$AAM?$AAR?$AA?5?$AA?5?$AA?5?$AA?5?$AA?$FN?$AA?5?$AA?$CL?$AA?$CL?$AAW?$AAM?$AAR?$AA_?$AAF?$AAo?$AAr?$AAm?$AAa?$AAt?$AA_?$AAF?$AAT?$AAL?$AA?$CI?$AA?$CJ?$AA?$AN?$AA?6?$AA?$AA@ 000314dc     WMR_Utils:WMR_Utils.obj
 0001:000205d4       OEMgetDisplayType          000315d4 f   main.obj
 0001:000205e4       OEMgetLCDBpp               000315e4 f   main.obj
 0001:000205f4       OEMgetBGColor              000315f4 f   main.obj
 0001:00020604       OEMsetDisplayType          00031604 f   main.obj
 0001:00020624       OEMsetLCDBpp               00031624 f   main.obj
 0001:00020644       OEMsetBGColor              00031644 f   main.obj
 0001:00020664       OEMclrLogoHW               00031664 f   main.obj
 0001:00020688       OEMGetHeight               00031688 f   main.obj
 0001:000206a4       OEMGetWidth                000316a4 f   main.obj
 0001:00020bd8       SetKITLConfigAndBootOptions 00031bd8 f   main.obj
 0001:00020e54       OEMInitPowerCTL            00031e54 f   main.obj
 0001:00020e80       OEMPreDownload             00031e80 f   main.obj
 0001:00021124       OEMReadData                00032124 f   main.obj
 0001:000211c0       OEMShowProgress            000321c0 f   main.obj
 0001:000211f0       OEMVerifyMemory            000321f0 f   main.obj
 0001:00021324       OEMMultiBINNotify          00032324 f   main.obj
 0001:0002146c       GetKernelExtPointer        0003246c f   main.obj
 0001:00021530       OEMDebugInit               00032530 f   main.obj
 0001:0002156c       SaveEthernetAddress        0003256c f   main.obj
 0001:00021850       OEMSerialSendRaw           00032850 f   main.obj
 0001:00021890       OEMSerialRecvRaw           00032890 f   main.obj
 0001:000219b4       main                       000329b4 f   main.obj
 0001:00022450       OEMPlatformInit            00033450 f   main.obj
 0001:00022ac0       OEMLaunch                  00033ac0 f   main.obj
 0001:00022ec8       initDisplay                00033ec8 f   main.obj
 0001:00022ed8       OEMInitDebugSerial         00033ed8 f   debug.obj
 0001:0002302c       OEMWriteDebugByte          0003402c f   debug.obj
 0001:0002304c       OEMReadDebugByte           0003404c f   debug.obj
 0001:0002306c       OEMWriteDebugString        0003406c f   debug.obj
 0001:000230a8       dm9000_hash_table          000340a8 f   dm9000dbg.obj
 0001:000231b8       DM9000DBG_Init             000341b8 f   dm9000dbg.obj
 0001:00023380       DM9000DBG_GetFrame         00034380 f   dm9000dbg.obj
 0001:00023424       DM9000DBG_SendFrame        00034424 f   dm9000dbg.obj
 0001:000234d4       InitEthDevice              000344d4 f   ether.obj
 0001:00023660       OEMKitlGetSecs             00034660 f   ether.obj
 0001:00023794       OEMEthGetFrame             00034794 f   ether.obj
 0001:000237ec       OEMEthSendFrame            000347ec f   ether.obj
 0001:00023890       OEMIsFlashAddr             00034890 f   flash.obj
 0001:00023898       OEMMapMemAddr              00034898 f   flash.obj
 0001:00023900       OEMStartEraseFlash         00034900 f   flash.obj
 0001:00023908       OEMContinueEraseFlash      00034908 f   flash.obj
 0001:0002390c       OEMFinishEraseFlash        0003490c f   flash.obj
 0001:00023914       OEMWriteFlash              00034914 f   flash.obj
 0001:0002391c       VALID_IMAGE_DESCRIPTOR     0003491c f i nand.obj
 0001:00023968       ?BootConfigPrint@@YAXXZ    00034968 f   nand.obj
 0001:00023bf8       ?ID_Print@@YAXK@Z          00034bf8 f   nand.obj
 0001:00023d4c       TOC_Print                  00034d4c f   nand.obj
 0001:00023e58       TOC_Init                   00034e58 f   nand.obj
 0001:000240c8       TOC_Read                   000350c8 f   nand.obj
 0001:0002430c       TOC_Write                  0003530c f   nand.obj
 0001:00024660       ?DumpXIPChainSummary@@YAXPAU_XIPCHAIN_SUMMARY@@@Z 00035660 f   nand.obj
 0001:00024724       WriteOSImageToBootMedia    00035724 f   nand.obj
 0001:00024f70       ReadOSImageFromBootMedia   00035f70 f   nand.obj
 0001:00025254       ?ReadBlock@@YAHKPAEPAU_SectorInfo@@@Z 00036254 f   nand.obj
 0001:0002528c       ?WriteBlock@@YAHKPAEPAU_SectorInfo@@@Z 0003628c f   nand.obj
 0001:000252c4       WriteRawImageToBootMedia   000362c4 f   nand.obj
 0001:00026ba4       MLC_LowLevelTest           00037ba4 f   nand.obj
 0001:00026fa0       OTGDEV_InitPhyCon          00037fa0 f   usb.obj
 0001:00026ff0       OTGDEV_SoftResetCore       00037ff0 f   usb.obj
 0001:00027020       OTGDEV_SetSoftDisconnect   00038020 f   usb.obj
 0001:00027050       OTGDEV_SetAllOutEpNak      00038050 f   usb.obj
 0001:000270ac       OTGDEV_ClearAllOutEpNak    000380ac f   usb.obj
 0001:00027108       OTGDEV_SetDescriptorTable  00038108 f   usb.obj
 0001:000272c0       OTGDEV_WrPktEp0            000382c0 f   usb.obj
 0001:00027328       OTGDEV_WrPktBulkInEp       00038328 f   usb.obj
 0001:00027390       OTGDEV_RdPktBulkOutEp      00038390 f   usb.obj
 0001:00027418       OTGDEV_SetOpMode           00038418 f   usb.obj
 0001:000274b4       PowerOnUSB                 000384b4 f   usb.obj
 0001:000274fc       UbootReadData              000384fc f   usb.obj
 0001:000275c0       OTGDEV_HandleEvent_EP0     000385c0 f   usb.obj
 0001:0002791c       OTGDEV_TransferEp0         0003891c f   usb.obj
 0001:00027e84       OTGDEV_HandleEvent_BulkIn  00038e84 f   usb.obj
 0001:00027f6c       OTGDEV_HandleEvent_BulkOut 00038f6c f   usb.obj
 0001:00027fd0       OTGDEV_SetEndpoint         00038fd0 f   usb.obj
 0001:00028078       OTGDEV_HandleEvent         00039078 f   usb.obj
 0001:000284c8       OTGDEV_InitOtg             000394c8 f   usb.obj
 0001:00028638       InitializeUSB              00039638 f   usb.obj
 0001:00028670       powerCTLMenu               00039670 f   PWRCTL_MENU.obj
 0001:00028894       backlight                  00039894 f   MegaDisplay.obj
 0001:00028970       editDisplayMenu            00039970 f   MegaDisplay.obj
 0001:00028d34       identifyDisplay            00039d34 f   MegaDisplay.obj
 0001:00028dd0       getChar                    00039dd0 f   utils.obj
 0001:00028fe8       ConfirmProcess             00039fe8 f   utils.obj
 0001:00029040       InputNumericalString       0003a040 f   utils.obj
 0001:000290e8       InputNumericalHex          0003a0e8 f   utils.obj
 0001:000291d8       mystrtoul                  0003a1d8 f   utils.obj
 0001:000292a8       getNumber                  0003a2a8 f   utils.obj
 0001:00029308       GetIPString                0003a308 f   utils.obj
 0001:000293ac       enterBGColor               0003a3ac f   DisplayMenu.obj
 0001:00029424       __drawLineH16              0003a424 f   DisplayMenu.obj
 0001:00029474       __drawLineV16              0003a474 f   DisplayMenu.obj
 0001:000294c4       __drawLineH24              0003a4c4 f   DisplayMenu.obj
 0001:00029510       __drawLineV24              0003a510 f   DisplayMenu.obj
 0001:0002955c       __TestPattern              0003a55c f   DisplayMenu.obj
 0001:00029648       DisplayMenu                0003a648 f   DisplayMenu.obj
 0001:00029920       _pixel24                   0003a920 f   LogoCraft.obj
 0001:00029970       _pixel16                   0003a970 f   LogoCraft.obj
 0001:0002998c       displayLogo                0003a98c f   LogoCraft.obj
 0001:00029a64       VIC_setHandler             0003aa64 f   InterruptController.obj
 0001:00029a74       VIC_InterruptEnable        0003aa74 f   InterruptController.obj
 0001:00029ab0       VIC_InterruptDisable       0003aab0 f   InterruptController.obj
 0001:00029e08       C_IsrHandler               0003ae08 f   InterruptController.obj
 0001:00029e68       InitializeInterrupt        0003ae68 f   InterruptController.obj
 0001:00029f58       Isr_IIC                    0003af58 f   i2c.obj
 0001:0002a128       IIC_Open                   0003b128 f   i2c.obj
 0001:0002a348       IIC_Write                  0003b348 f   i2c.obj
 0001:0002a408       g_oalAddressTable          0003b408     startup.obj
 0001:0002a4f8       StartUp                    0003b4f8 f   startup.obj
 0001:0002a6d4       Launch                     0003b6d4 f   startup.obj
 0001:0002a710       ChangeCLKDIV               0003b710 f   startup.obj
 0001:0002a754       ASM_IsrHandler             0003b754 f   usbs.obj
 0001:0002a76c       OALFlushDCache             0003b76c f   oal_cache_s3c6410_sec_v1:flushdc.obj
 0001:0002a7e0       OALFlushICache             0003b7e0 f   oal_cache_s3c6410_sec_v1:flushic.obj
 0001:0002a7ec       OALClearUTLB               0003b7ec f   oal_cache_s3c6410_sec_v1:clearutlb.obj
 0001:0002a7f8       System_GetAPLLCLK          0003b7f8 f   s3c6410_system_lib_sec_v1:s3c6410_util.obj
 0001:0002a868       System_GetMPLLCLK          0003b868 f   s3c6410_system_lib_sec_v1:s3c6410_util.obj
 0001:0002a8c0       System_VCheckSyncMode      0003b8c0 f   s3c6410_system_lib_sec_v1:s3c6410_util.obj
 0001:0002a8f0       Delay                      0003b8f0 f   s3c6410_system_lib_sec_v1:s3c6410_util.obj
 0001:0002a900       System_GetPCLK             0003b900 f   s3c6410_system_lib_sec_v1:s3c6410_util.obj
 0001:0002a968       System_EnableVIC           0003b968 f   s3c6410_system_lib_sec_v1:s3c6410_system.obj
 0001:0002a978       System_DisableVIC          0003b978 f   s3c6410_system_lib_sec_v1:s3c6410_system.obj
 0001:0002a988       System_EnableIRQ           0003b988 f   s3c6410_system_lib_sec_v1:s3c6410_system.obj
 0001:0002a998       System_DisableIRQ          0003b998 f   s3c6410_system_lib_sec_v1:s3c6410_system.obj
 0001:0002a9a8       System_EnableFIQ           0003b9a8 f   s3c6410_system_lib_sec_v1:s3c6410_system.obj
 0001:0002a9b8       System_DisableFIQ          0003b9b8 f   s3c6410_system_lib_sec_v1:s3c6410_system.obj
 0001:0002a9c8       System_EnableBP            0003b9c8 f   s3c6410_system_lib_sec_v1:s3c6410_system.obj
 0001:0002a9d8       System_DisableBP           0003b9d8 f   s3c6410_system_lib_sec_v1:s3c6410_system.obj
 0001:0002a9e8       System_EnableICache        0003b9e8 f   s3c6410_system_lib_sec_v1:s3c6410_system.obj
 0001:0002a9f8       System_CheckSyncMode       0003b9f8 f   s3c6410_system_lib_sec_v1:s3c6410_system.obj
 0001:0002aa14       System_SetSyncMode         0003ba14 f   s3c6410_system_lib_sec_v1:s3c6410_system.obj
 0001:0002aa58       System_SetAsyncMode        0003ba58 f   s3c6410_system_lib_sec_v1:s3c6410_system.obj
 0001:0002aaa4       System_WaitForInterrupt    0003baa4 f   s3c6410_system_lib_sec_v1:s3c6410_system.obj
 0001:0002aab4       ChangeAsyncToSync          0003bab4 f   s3c6410_system_lib_sec_v1:s3c6410_system.obj
 0001:0002ab20       ChangeSyncToAsync          0003bb20 f   s3c6410_system_lib_sec_v1:s3c6410_system.obj
 0001:0002ab8c       ChangeDivider              0003bb8c f   s3c6410_system_lib_sec_v1:s3c6410_system.obj
 0001:0002abd0       ChangeToL1                 0003bbd0 f   s3c6410_system_lib_sec_v1:s3c6410_system.obj
 0001:0002ac84       ChangeToL0                 0003bc84 f   s3c6410_system_lib_sec_v1:s3c6410_system.obj
 0001:0002ad50       OALStall_us                0003bd50 f   s3c6410_system_lib_sec_v1:s3c6410_stall.obj
 0001:0002adb4       OALStall_ms                0003bdb4 f   s3c6410_system_lib_sec_v1:s3c6410_stall.obj
 0001:0002ae1c       OALKitlCreateName          0003be1c f   oal_kitl:name.obj
 0001:0002af54       NKDbgPrintfW               0003bf54 f   oal_blnk:wrappers.obj
 0001:0002b014       NKwvsprintfW               0003c014 f   oal_blnk:format.obj
 0001:0002ba14       inet_addr                  0003ca14 f   oal_blcommon:format.obj
 0001:0002ba74       KITLOutputDebugString      0003ca74 f   oal_blcommon:format.obj
 0001:0002bbe4       FormatString               0003cbe4 f   oal_blcommon:format.obj
 0001:0002bd7c       inet_ntoa                  0003cd7c f   oal_blcommon:format.obj
 0001:0002c9b8       BootloaderMain             0003d9b8 f   oal_blcommon:blcommon.obj
 0001:0002cc48       OALPAtoVA                  0003dc48 f   oal_blmemory_arm:memory.obj
 0001:0002cd18       OALVAtoPA                  0003dd18 f   oal_blmemory_arm:memory.obj
 0001:0002ce0c       ?CalcChksum@@YAEPAEG@Z     0003de0c f   oal_blserial:serfuncs.obj
 0001:0002ce5c       SerialSendBootRequest      0003de5c f   oal_blserial:serfuncs.obj
 0001:0002cf14       SerialSendBlockAck         0003df14 f   oal_blserial:serfuncs.obj
 0001:0002cfb8       ?RecvHeader@@YAHPAUtagSERIAL_PACKET_HEADER@@E@Z 0003dfb8 f   oal_blserial:serfuncs.obj
 0001:0002d098       ?RecvPacket@@YAHPAUtagSERIAL_PACKET_HEADER@@PAEPAGE@Z 0003e098 f   oal_blserial:serfuncs.obj
 0001:0002d1b8       SerialReadData             0003e1b8 f   oal_blserial:serfuncs.obj
 0001:0002d358       SerialWaitForBootAck       0003e358 f   oal_blserial:serfuncs.obj
 0001:0002d410       SerialWaitForJump          0003e410 f   oal_blserial:serfuncs.obj
 0001:0002d4c0       EbootInitTFtpd             0003e4c0 f   eboot:tftpd.obj
 0001:0002d4e0       tolower                    0003e4e0 f   eboot:tftpd.obj
 0001:0002d4f0       EbootTFtpdServerRegister   0003e4f0 f   eboot:tftpd.obj
 0001:0002d580       GenerateSrcPort            0003e580 f   eboot:tftpd.obj
 0001:0002d58c       TFtpdCallBack              0003e58c f   eboot:tftpd.obj
 0001:0002d868       TFtpdFormNewLink           0003e868 f   eboot:tftpd.obj
 0001:0002dce8       EbootInitTftpSimple        0003ece8 f   eboot:ebsimp.obj
 0001:0002dd54       EbootEtherReadData         0003ed54 f   eboot:ebsimp.obj
 0001:0002dee0       EbootCheckIP               0003eee0 f   eboot:ebsimp.obj
 0001:0002dfb0       EbootGetDHCPAddr           0003efb0 f   eboot:ebsimp.obj
 0001:0002e17c       EbootSendBootmeAndWaitForTftp 0003f17c f   eboot:ebsimp.obj
 0001:0002e348       EbootWaitForHostConnect    0003f348 f   eboot:ebsimp.obj
 0001:0002e444       EbootInitEtherTransport    0003f444 f   eboot:ebsimp.obj
 0001:0002e540       EbootInitTFtp              0003f540 f   eboot:tftp.obj
 0001:0002e594       TFtpKillLink               0003f594 f   eboot:tftp.obj
 0001:0002e68c       TFtpStateMachine           0003f68c f   eboot:tftp.obj
 0001:0002e928       EbootTFtpReceiver          0003f928 f   eboot:tftp.obj
 0001:0002ea7c       SrcAddrFromFrame           0003fa7c f   eboot:udp.obj
 0001:0002eae8       EbootGratuitousARP         0003fae8 f   eboot:udp.obj
 0001:0002ec44       SetPromiscuousIP           0003fc44 f   eboot:udp.obj
 0001:0002ec58       ClearPromiscuousIP         0003fc58 f   eboot:udp.obj
 0001:0002ed24       EbootProcessARP            0003fd24 f   eboot:udp.obj
 0001:0002efac       EbootSendUDP               0003ffac f   eboot:udp.obj
 0001:0002f224       EbootCheckUDP              00040224 f   eboot:udp.obj
 0001:0002f4e8       DHCPBuildOps               000404e8 f   eboot:dhcp.obj
 0001:0002f69c       DHCPFindOption             0004069c f   eboot:dhcp.obj
 0001:0002f794       EbootProcessDHCP           00040794 f   eboot:dhcp.obj
 0001:0002fadc       EbootInitDHCP              00040adc f   eboot:dhcp.obj
 0001:0002fb40       EbootDHCPRetransmit        00040b40 f   eboot:dhcp.obj
 0001:0002fc60       SendDHCP                   00040c60 f   eboot:dhcp.obj
 0001:000300ec       EbootDHCPDecline           000410ec f   eboot:dhcp.obj
 0001:0003016c       EbootProcessEDBG           0004116c f   eboot:edbg.obj
 0001:00030330       EbootSendBootme            00041330 f   eboot:edbg.obj
 0001:000304f8       __GSHandlerCheckCommon     000414f8 f   fulllibc:gshandler.obj
 0001:00030534       __GSHandlerCheck           00041534 f   fulllibc:gshandler.obj
 0001:00030558       __security_check_cookie    00041558 f   fulllibc:armsecgs.obj
 0001:0003056c       __gsfailure                0004156c f   fulllibc:armsecgs.obj
 0001:000305b0       atol                       000415b0 f   fulllibc:atox.obj
 0001:00030654       atoi                       00041654 f   fulllibc:atox.obj
 0001:00030664       memset                     00041664 f   fulllibc:memset.obj
 0001:000306ec       memcpy                     000416ec f   fulllibc:memcpy.obj
 0001:00030a98       memcpybigblk               00041a98 f   fulllibc:memcpy.obj
 0001:0003144c       strcmp                     0004244c f   fulllibc:mdsstrcmp.obj
 0001:0003153c       __utos                     0004253c f   fulllibc:r_itos.obj
 0001:00031554       __itos                     00042554 f   fulllibc:r_itos.obj
 0001:00031604       __stod                     00042604 f   fulllibc:r_stod.obj
 0001:00031734       __divd                     00042734 f   fulllibc:r_divd.obj
 0001:00031a1c       __dtos                     00042a1c f   fulllibc:r_dtos.obj
 0001:00031b70       __stoi                     00042b70 f   fulllibc:r_stoi.obj
 0001:00031c58       __subs                     00042c58 f   fulllibc:r_adds.obj
 0001:00031c70       __adds                     00042c70 f   fulllibc:r_adds.obj
 0001:00031ebc       __flt_underflow            00042ebc     fulllibc:r_adds.obj
 0001:00031f60       __fArithReturn             00042f60     fulllibc:r_adds.obj
 0001:00031fb0       __fArithNaNCheck           00042fb0     fulllibc:r_adds.obj
 0001:00031fe8       __muls                     00042fe8 f   fulllibc:r_muls.obj
 0001:00032098       fmul_fdiv_overflow         00043098     fulllibc:r_muls.obj
 0001:00032120       __stou                     00043120 f   fulllibc:r_stou.obj
 0001:000321f0       __rt_udiv                  000431f0 f   fulllibc:__udiv.obj
 0001:000322b4       memcmp                     000432b4 f   fulllibc:memcmp.obj
 0001:00032380       strlen                     00043380 f   fulllibc:mdsstrlen.obj
 0001:000323e4       __rt_sdiv                  000433e4 f   fulllibc:__div.obj
 0001:000324c0       __rt_udivrem64by64         000434c0 f   fulllibc:mdsdiv64.obj
 0001:000325b8       __rt_divrem64by64          000435b8 f   fulllibc:mdsdiv64.obj
 0001:00032608       __rt_udiv64by64            00043608 f   fulllibc:mdsdiv64.obj
 0001:00032618       __rt_urem64by64            00043618 f   fulllibc:mdsdiv64.obj
 0001:00032630       __rt_sdiv64by64            00043630 f   fulllibc:mdsdiv64.obj
 0001:00032640       __rt_srem64by64            00043640 f   fulllibc:mdsdiv64.obj
 0001:00032658       strncpy                    00043658 f   fulllibc:astrncpy.obj
 0001:00032700       memmove                    00043700 f   fulllibc:memmove.obj
 0001:00032e90       memmovebigblk              00043e90 f   fulllibc:memmove.obj
 0001:00033928       strcpy                     00044928 f   fulllibc:strcpy.obj
 0001:00033a20       _itoa                      00044a20 f   fulllibc:xtoa.obj
 0001:00033a58       strcat                     00044a58 f   fulllibc:mdsstrcat.obj
 0001:00033a80       __fp_veneer_error          00044a80     fulllibc:error.obj
 0001:00033a80       __fp_nonveneer_error       00044a80     fulllibc:error.obj
 0001:00033a84       __fp_exception             00044a84     fulllibc:error.obj
 0001:00033bc8       __fp_norm_op1              00044bc8     fulllibc:normop1.obj
 0001:00033c90       FPE_Raise                  00044c90 f   fulllibc:fpraise.obj
 0001:00034330       __fp_div_common            00045330     fulllibc:div.obj
 0001:00034354       __fp_rdv_common            00045354     fulllibc:div.obj
 0001:000347f8       __fp_rdv_uncommon          000457f8     fulllibc:div.obj
 0001:000347f8       __fp_div_uncommon          000457f8     fulllibc:div.obj
 0001:00034938       __fp_norm_op2              00045938     fulllibc:normop2.obj
 0001:000349f8       _e2d                       000459f8     fulllibc:e2d.obj
 0001:00034a04       __fp_e2d                   00045a04     fulllibc:e2d.obj
 0001:00034a9c       _e2d_ExpUnderflow          00045a9c     fulllibc:e2d.obj
 0001:00034cc4       __flt_normalise2           00045cc4     fulllibc:fnorm2.obj
 0001:00034d58       __raise_int_divide_by_zero 00045d58 f   fulllibc:diverr.obj
 0001:00034d7c       __fp_fcheck_NaN2           00045d7c     fulllibc:check.obj
 0001:00034da8       __fp_dcheck_NaN2           00045da8     fulllibc:check.obj
 0001:00034df0       __fp_return_NaN            00045df0     fulllibc:check.obj
 0001:00034e58       __fp_return_Inf            00045e58     fulllibc:check.obj
 0001:00034e5c       __crtRaiseException        00045e5c f   fulllibc:raiseexc.obj
 0001:00034e78       __fp_convert_NaNs          00045e78     fulllibc:nans.obj
 0001:00034e98       __fp_convert_NaN_2Of2      00045e98     fulllibc:nans.obj
 0001:00034eb0       __fp_convert_NaN1          00045eb0     fulllibc:nans.obj
 0001:00034ebc       __fp_convert_NaN_1Of2      00045ebc     fulllibc:nans.obj
 0001:00034f4c       __fp_norm_denorm_op1       00045f4c     fulllibc:normal.obj
 0001:00035034       __fp_norm_denorm_op2       00046034     fulllibc:normal.obj
 0001:00035140       __fp_normalise_op1         00046140     fulllibc:normal.obj
 0001:000351a4       __fp_normalise_op2         000461a4     fulllibc:normal.obj
 0001:00035208       __fp_normalise_op1neg      00046208     fulllibc:normal.obj
 0001:00035284       __report_gsfailure         00046284 f   gsnull:gsnull.obj
 0001:00035288       OALArgsInit                00046288 f   s3c6410_args:args.obj
 0001:00035424       OALArgsQuery               00046424 f   s3c6410_args:args.obj
 0001:000355bc       PWRCTL_getPowerModuleName  000465bc f   extpowerctl_lib:ExtPowerCTL_LIB.obj
 0001:000355d4       PWRCTL_setPower            000465d4 f   extpowerctl_lib:ExtPowerCTL_LIB.obj
 0001:000355e8       PWRCTL_clrPower            000465e8 f   extpowerctl_lib:ExtPowerCTL_LIB.obj
 0001:000355fc       PWRCTL_togglePower         000465fc f   extpowerctl_lib:ExtPowerCTL_LIB.obj
 0001:00035610       PWRCTL_getStatusOnOff      00046610 f   extpowerctl_lib:ExtPowerCTL_LIB.obj
 0001:00035630       PWRCTL_isDefault           00046630 f   extpowerctl_lib:ExtPowerCTL_LIB.obj
 0001:00035648       PWRCTL_setDAC0Power        00046648 f   extpowerctl_lib:ExtPowerCTL_LIB.obj
 0001:0003568c       PWRCTL_powerCTLInit        0004668c f   extpowerctl_lib:ExtPowerCTL_LIB.obj
 0001:00035810       PWRCTL_setDAC1Power        00046810 f   extpowerctl_lib:ExtPowerCTL_LIB.obj
 0001:00035854       PWRCTL_setAllTo            00046854 f   extpowerctl_lib:ExtPowerCTL_LIB.obj
 0001:0003593c       PWRCTL_setDefaultPower     0004693c f   extpowerctl_lib:ExtPowerCTL_LIB.obj
 0001:00035954       PWRCTL_InitializePowerCTL  00046954 f   extpowerctl_lib:ExtPowerCTL_LIB.obj
 0001:00035974       Disp_initialize_register_address 00046974 f   s3c6410_disp_lib:s3c6410_display_con.obj
 0001:000359c0       Disp_set_output_device_information 000469c0 f   s3c6410_disp_lib:s3c6410_display_con.obj
 0001:000359fc       Disp_set_framebuffer       000469fc f   s3c6410_disp_lib:s3c6410_display_con.obj
 0001:00035c04       Disp_envid_onoff           00046c04 f   s3c6410_disp_lib:s3c6410_display_con.obj
 0001:00035c8c       Disp_window_onfoff         00046c8c f   s3c6410_disp_lib:s3c6410_display_con.obj
 0001:00036880       Disp_set_window_mode       00047880 f   s3c6410_disp_lib:s3c6410_display_con.obj
 0001:00036c7c       Disp_initialize_output_interface 00047c7c f   s3c6410_disp_lib:s3c6410_display_con.obj
 0001:00036d1c       LDI_copyDisplay            00047d1c f   s3c6410_ldi_lib:s3c6410_ldi.obj
 0001:00036d48       LDI_GetDisplayWidth        00047d48 f   s3c6410_ldi_lib:s3c6410_ldi.obj
 0001:00036d6c       LDI_GetDisplayHeight       00047d6c f   s3c6410_ldi_lib:s3c6410_ldi.obj
 0001:00036d90       LDI_getDisplayName         00047d90 f   s3c6410_ldi_lib:s3c6410_ldi.obj
 0001:00036db4       LDI_setBacklight           00047db4 f   s3c6410_ldi_lib:s3c6410_ldi.obj
 0001:00036e0c       LDI_getBoost               00047e0c f   s3c6410_ldi_lib:s3c6410_ldi.obj
 0001:00036e28       LDI_setBPP                 00047e28 f   s3c6410_ldi_lib:s3c6410_ldi.obj
 0001:00036e58       LDI_clearScreen            00047e58 f   s3c6410_ldi_lib:s3c6410_ldi.obj
 0001:00036f1c       LDI_getDisplayType         00047f1c f   s3c6410_ldi_lib:s3c6410_ldi.obj
 0001:00036f2c       LDI_fill_output_device_information 00047f2c f   s3c6410_ldi_lib:s3c6410_ldi.obj
 0001:00036ff8       LDI_initDisplay            00047ff8 f   s3c6410_ldi_lib:s3c6410_ldi.obj
 0001:000370ec       Serial_Init                000480ec f   oal_usbdbgsermdd:serifc.obj
 0001:000371a4       Serial_Send                000481a4 f   oal_usbdbgsermdd:serifc.obj
 0001:00037250       Serial_Recv                00048250 f   oal_usbdbgsermdd:serifc.obj
 0001:00037de8       UsbSerial_EventHandler     00048de8 f   oal_usbdbgsermdd:usbser.obj
 0001:00037fd0       UsbSerial_RecvData         00048fd0 f   oal_usbdbgsermdd:usbser.obj
 0001:000380c8       UsbSerial_Init             000490c8 f   oal_usbdbgsermdd:usbser.obj
 0001:000381f8       UsbSerial_IsConnected      000491f8 f   oal_usbdbgsermdd:usbser.obj
 0001:00038318       UsbSerial_SendData         00049318 f   oal_usbdbgsermdd:usbser.obj
 0001:000389e0       Rndis_Init                 000499e0 f   oal_usbdbgrndismdd:rndismin.obj
 0001:00038b54       Rndis_SendFrame            00049b54 f   oal_usbdbgrndismdd:rndismin.obj
 0001:00038c20       Rndis_RecvFrame            00049c20 f   oal_usbdbgrndismdd:rndismin.obj
 0001:00038d00       RndisPdd_RecvdMsg          00049d00 f   oal_usbdbgrndismdd:rndismin.obj
 0001:00039128       RndisPdd_ProcessRecvdData  0004a128 f   oal_usbdbgrndismdd:rndismin.obj
 0001:00039198       RndisPdd_SetRndisState     0004a198 f   oal_usbdbgrndismdd:rndismin.obj
 0001:00039d0c       UsbRndis_EventHandler      0004ad0c f   oal_usbdbgrndismdd:usbrndis.obj
 0001:00039f40       UsbRndis_RecvData          0004af40 f   oal_usbdbgrndismdd:usbrndis.obj
 0001:0003a00c       UsbRndis_RndisMsgSent      0004b00c f   oal_usbdbgrndismdd:usbrndis.obj
 0001:0003a024       UsbRndis_Init              0004b024 f   oal_usbdbgrndismdd:usbrndis.obj
 0001:0003a304       UsbRndis_SendMessage       0004b304 f   oal_usbdbgrndismdd:usbrndis.obj
 0001:0003a3a4       UsbRndis_SendData          0004b3a4 f   oal_usbdbgrndismdd:usbrndis.obj
 0001:0003a62c       UsbDbgPdd_DeInit           0004b62c f   s3c6410_usbdbgpdd:usbdbgpdd.obj
 0001:0003a640       UsbDbgPdd_Connect          0004b640 f   s3c6410_usbdbgpdd:usbdbgpdd.obj
 0001:0003a684       UsbDbgPdd_Disconnect       0004b684 f   s3c6410_usbdbgpdd:usbdbgpdd.obj
 0001:0003a6c8       UsbDbgPdd_Ioctl            0004b6c8 f   s3c6410_usbdbgpdd:usbdbgpdd.obj
 0001:0003a744       UsbDbgPdd_EventHandler     0004b744 f   s3c6410_usbdbgpdd:usbdbgpdd.obj
 0001:0003a954       UsbDbgPdd_RecvData         0004b954 f   s3c6410_usbdbgpdd:usbdbgpdd.obj
 0001:0003ab68       UsbDbgPdd_SendData         0004bb68 f   s3c6410_usbdbgpdd:usbdbgpdd.obj
 0001:0003acd8       UsbDbgPdd_SendCmd          0004bcd8 f   s3c6410_usbdbgpdd:usbdbgpdd.obj
 0001:0003adac       UsbDbgPdd_SetPower         0004bdac f   s3c6410_usbdbgpdd:usbdbgpdd.obj
 0001:0003ae38       UsbDbgPdd_Init             0004be38 f   s3c6410_usbdbgpdd:usbdbgpdd.obj
 0001:0003af24       OTGDevice_StallHelper      0004bf24 f   s3c6410_usbdbgpdd:otgdev.obj
 0001:0003af74       OTGDevice_SoftResetCore    0004bf74 f   s3c6410_usbdbgpdd:otgdev.obj
 0001:0003afb4       OTGDevice_SetSoftDisconnect 0004bfb4 f   s3c6410_usbdbgpdd:otgdev.obj
 0001:0003afcc       OTGDevice_ClearSoftDisconnect 0004bfcc f   s3c6410_usbdbgpdd:otgdev.obj
 0001:0003afe4       OTGDevice_SetAddress       0004bfe4 f   s3c6410_usbdbgpdd:otgdev.obj
 0001:0003b038       OTGDevice_InitNonControlEndPts 0004c038 f   s3c6410_usbdbgpdd:otgdev.obj
 0001:0003b188       OTGDevice_SetOutEpXferSize 0004c188 f   s3c6410_usbdbgpdd:otgdev.obj
 0001:0003b1c8       OTGDevice_DeInit           0004c1c8 f   s3c6410_usbdbgpdd:otgdev.obj
 0001:0003b264       OTGDevice_HandleReset      0004c264 f   s3c6410_usbdbgpdd:otgdev.obj
 0001:0003b2fc       OTGDevice_HandleEnumDone   0004c2fc f   s3c6410_usbdbgpdd:otgdev.obj
 0001:0003b3ac       OTGDevice_Init             0004c3ac f   s3c6410_usbdbgpdd:otgdev.obj
 0001:0003b4d0       OTGDevice_InitEndPts       0004c4d0 f   s3c6410_usbdbgpdd:otgdev.obj
 0001:0003b768       FIL_Init                   0004c768 f   SMDK6410_MLC_FIL:FIL.obj
 0001:0003b7ec       FIL_GetFuncTbl             0004c7ec f   SMDK6410_MLC_FIL:FIL.obj
 0001:0003b7f8       NF_WAIT_ECC_DEC_DONE       0004c7f8 f   SMDK6410_MLC_FIL:S3C6410_FIL.obj
 0001:0003b87c       NAND_GetPlatformInfo       0004c87c f   SMDK6410_MLC_FIL:S3C6410_FIL.obj
 0001:0003b91c       NAND_Steploader_Write      0004c91c f   SMDK6410_MLC_FIL:S3C6410_FIL.obj
 0001:0003bc1c       NAND_Sync                  0004cc1c f   SMDK6410_MLC_FIL:S3C6410_FIL.obj
 0001:0003be24       NAND_Reset                 0004ce24 f   SMDK6410_MLC_FIL:S3C6410_FIL.obj
 0001:0003d0dc       MLC_Read_RAW               0004e0dc f   SMDK6410_MLC_FIL:S3C6410_FIL.obj
 0001:0003d214       MLC_Write_RAW              0004e214 f   SMDK6410_MLC_FIL:S3C6410_FIL.obj
 0001:0003d374       MLC_Erase_RAW              0004e374 f   SMDK6410_MLC_FIL:S3C6410_FIL.obj
 0001:0003d598       NAND_Init                  0004e598 f   SMDK6410_MLC_FIL:S3C6410_FIL.obj
 0001:0003da98       NAND_Write                 0004ea98 f   SMDK6410_MLC_FIL:S3C6410_FIL.obj
 0001:0003e118       NAND_Erase                 0004f118 f   SMDK6410_MLC_FIL:S3C6410_FIL.obj
 0001:0003f9c0       NAND_Read                  000509c0 f   SMDK6410_MLC_FIL:S3C6410_FIL.obj
 0001:00040094       NAND_Read_Retry            00051094 f   SMDK6410_MLC_FIL:S3C6410_FIL.obj
 0001:000402c4       _Read_512Byte              000512c4 f   SMDK6410_MLC_FIL:S3C6410_FIL_opt.obj
 0001:00040304       _Read_512Byte_Unaligned    00051304 f   SMDK6410_MLC_FIL:S3C6410_FIL_opt.obj
 0001:000403a0       _Write_512Byte             000513a0 f   SMDK6410_MLC_FIL:S3C6410_FIL_opt.obj
 0001:000403e0       _Write_512Byte_Unaligned   000513e0 f   SMDK6410_MLC_FIL:S3C6410_FIL_opt.obj
 0001:0004047c       _Write_Dummy_468Byte_AllFF 0005147c f   SMDK6410_MLC_FIL:S3C6410_FIL_opt.obj
 0001:000404d0       _Write_Dummy_428Byte_AllFF 000514d0 f   SMDK6410_MLC_FIL:S3C6410_FIL_opt.obj
 0001:0004051c       _Write_Dummy_364Byte_AllFF 0005151c f   SMDK6410_MLC_FIL:S3C6410_FIL_opt.obj
 0001:00040568       _Write_Dummy_500Byte_AllFF 00051568 f   SMDK6410_MLC_FIL:S3C6410_FIL_opt.obj
 0001:000405bc       _Write_Dummy_492Byte_AllFF 000515bc f   SMDK6410_MLC_FIL:S3C6410_FIL_opt.obj
 0001:00040608       _Write_Dummy_480Byte_AllFF 00051608 f   SMDK6410_MLC_FIL:S3C6410_FIL_opt.obj
 0001:00040648       _Write_Dummy_448Byte_AllFF 00051648 f   SMDK6410_MLC_FIL:S3C6410_FIL_opt.obj
 0001:00040688       _STOP_FOR_BREAK            00051688 f   SMDK6410_MLC_FIL:S3C6410_FIL_opt.obj
 0001:000418bc       FTL_Format                 000528bc f   FTL_MLC:FTLInterface.obj
 0001:00041b2c       FTL_Init                   00052b2c f   FTL_MLC:FTLInterface.obj
 0001:00041d38       FTL_Close                  00052d38 f   FTL_MLC:FTLInterface.obj
 0001:00042d6c       FTL_Read                   00053d6c f   FTL_MLC:FTLInterface.obj
 0001:000437d8       FTL_Open                   000547d8 f   FTL_MLC:FTLInterface.obj
 0001:00044260       VFL_Init                   00055260 f   VFL_MLC:VFLInterface.obj
 0001:000443d4       _CheckNANDFlash            000553d4 f   VFL_MLC:VFLInterface.obj
 0001:00044748       VFL_Close                  00055748 f   VFL_MLC:VFLInterface.obj
 0001:00044798       VFL_GetFTLCxtVbn           00055798 f   VFL_MLC:VFLInterface.obj
 0001:00045868       DoSync                     00056868 f   VFL_MLC:VFLInterface.obj
 0001:00045914       VFL_Open                   00056914 f   VFL_MLC:VFLInterface.obj
 0001:00045e4c       VFL_Read                   00056e4c f   VFL_MLC:VFLInterface.obj
 0001:00046cac       VFL_Write                  00057cac f   VFL_MLC:VFLInterface.obj
 0001:00046f6c       VFL_Sync                   00057f6c f   VFL_MLC:VFLInterface.obj
 0001:00046fcc       VFL_Erase                  00057fcc f   VFL_MLC:VFLInterface.obj
 0001:00047830       VFL_Copyback               00058830 f   VFL_MLC:VFLInterface.obj
 0001:00048390       VFL_Format                 00059390 f   VFL_MLC:VFLInterface.obj
 0001:0004882c       BUF_Init                   0005982c f   VFL_MLC:VFLBuffer.obj
 0001:000488f0       BUF_Get                    000598f0 f   VFL_MLC:VFLBuffer.obj
 0001:00048a34       BUF_Release                00059a34 f   VFL_MLC:VFLBuffer.obj
 0001:00048b44       BUF_Reget                  00059b44 f   VFL_MLC:VFLBuffer.obj
 0001:00048bdc       BUF_Close                  00059bdc f   VFL_MLC:VFLBuffer.obj
 0001:00048c14       WMR_GetChkSum              00059c14 f   EbootWMROAM:EbootWMROAM.obj
 0001:00048cd4       OAM_Memcpy                 00059cd4 f   EbootWMROAM:EbootWMROAM.obj
 0001:00048d7c       OAM_Memset                 00059d7c f   EbootWMROAM:EbootWMROAM.obj
 0001:00048df0       OAM_Assert                 00059df0 f   EbootWMROAM:EbootWMROAM.obj
 0001:00048e30       CalcGlobal                 00059e30 f   wmrglobal:WMRGlobal.obj
 0001:00048fc8       GetMlcClass                00059fc8 f   wmrglobal:WMRGlobal.obj
 0001:00048fd0       ?WMR_Init@@YAHXZ           00059fd0 f   bootpart:fmd_stub.obj
 0001:000491c8       FMD_Init                   0005a1c8 f   bootpart:fmd_stub.obj
 0001:000491ec       FMD_GetInfo                0005a1ec f   bootpart:fmd_stub.obj
 0001:00049248       FMD_ReadSector             0005a248 f   bootpart:fmd_stub.obj
 0001:00049394       FMD_WriteSector            0005a394 f   bootpart:fmd_stub.obj
 0001:000494a0       FMD_EraseBlock             0005a4a0 f   bootpart:fmd_stub.obj
 0001:00049690       CreateMBR                  0005a690 f   bootpart:bootpart.obj
 0001:0004970c       IsValidMBR                 0005a70c f   bootpart:bootpart.obj
 0001:00049920       BP_WriteData               0005a920 f   bootpart:bootpart.obj
 0001:00049bf8       BP_SetDataPointer          0005abf8 f   bootpart:bootpart.obj
 0001:00049cc4       BP_Init                    0005acc4 f   bootpart:bootpart.obj
 0001:00049d7c       BP_LowLevelFormat          0005ad7c f   bootpart:bootpart.obj
 0001:00049e20       BP_OpenPartition           0005ae20 f   bootpart:bootpart.obj
 0001:00049ff4       WMR_Format_FIL             0005aff4 f   WMR_Utils:WMR_Utils.obj
 0001:0004a2a8       WMR_ERASE_VFLAREA          0005b2a8 f   WMR_Utils:WMR_Utils.obj
 0001:0004a548       WMR_Format_VFL             0005b548 f   WMR_Utils:WMR_Utils.obj
 0001:0004a6b8       WMR_Format_FTL             0005b6b8 f   WMR_Utils:WMR_Utils.obj
 0001:0004a7c8       OALLogSerial               0005b7c8 f   oal_log:log.obj
 0002:00000000       g_bDownloadImage           0005c000     main.obj
 0002:00000004       g_bWaitForConnect          0005c004     main.obj
 0002:00000008       g_DefaultBootDevice        0005c008     main.obj
 0002:0000000c       BootDeviceString           0005c00c     main.obj
 0002:00000020       red_mask                   0005c020     LogoCraft.obj
 0002:00000024       green_mask                 0005c024     LogoCraft.obj
 0002:00000028       blue_mask                  0005c028     LogoCraft.obj
 0002:0000002c       red_blue_mask              0005c02c     LogoCraft.obj
 0002:00000030       initialOALLogZones         0005c030     oal_log:debug.obj
 0002:00000038       dpCurSettings              0005c038     oal_log:debug.obj
 0002:000004d8       __fp_status_flags          0005c4d8     fulllibc:fpdata.obj
 0002:000004dc       __fp_errblock              0005c4dc     fulllibc:fpdata.obj
 0002:00000520       __rt_trap                  0005c520     fulllibc:fpdata.obj
 0002:00000524       __security_cookie          0005c524     gsnull:gsnull.obj
 0002:00000528       __security_cookie_complement 0005c528     gsnull:gsnull.obj
 0002:00000580       g_flipCompleted            0005c580     s3c6410_disp_lib:s3c6410_display_con.obj
 0002:00000c58       g_UsbDbgZones              0005cc58     s3c6410_usbdbgpdd:usbdbgpdd.obj
 0002:00000d68       ?g_dwMBRSectorNum@@3KA     0005cd68     bootpart:bootpart.obj
 0002:00000dc8       g_bBootMediaExist          0005cdc8     main.obj
 0002:00000dcc       g_EraseReservedBlock       0005cdcc     main.obj
 0002:000052fc       g_bTransferEp0             000612fc     usb.obj
 0002:000071dc       ?g_buffer@@3PAEA           000631dc     oal_blserial:serfuncs.obj
 0002:00007dc8       bDoLaunch                  00063dc8     eboot:tftpd.obj
 0002:00007dcc       TftpPeerAddr               00063dcc     eboot:tftpd.obj
 0002:0000abb0       ?g_LastRxPktStatus@@3KA    00066bb0     s3c6410_usbdbgpdd:usbdbgpdd.obj
 0002:0000abb4       g_NumEPsUsed               00066bb4     s3c6410_usbdbgpdd:otgdev.obj
 0002:0000abb8       g_pusbDeviceDescriptor     00066bb8     s3c6410_usbdbgpdd:otgdev.obj
 0002:0000ac00       bReadSafeMode              00066c00     SMDK6410_MLC_FIL:S3C6410_FIL.obj
 0002:0000ac04       bECCEngineError            00066c04     SMDK6410_MLC_FIL:S3C6410_FIL.obj
 0002:0001720c       pLocalSData                0007320c     VFL_MLC:VFLInterface.obj
 0002:00019490       pLocalMData                00075490     VFL_MLC:VFLInterface.obj
 0002:00038fe8       stDeviceInfo               00094fe8     wmrglobal:WMRGlobal.obj
 0002:00039050       stConfig                   00095050     wmrglobal:WMRGlobal.obj
 0002:00039098       stLayout                   00095098     wmrglobal:WMRGlobal.obj
 0002:000390c0       ?nCount@@3KA               000950c0     bootpart:fmd_stub.obj
 0002:000390c4       ?g_partStateTable@@3PAU_PARTSTATE@@A 000950c4     bootpart:bootpart.obj
 0002:000390e4       ?g_FlashInfo@@3U_FlashInfo@@A 000950e4     bootpart:bootpart.obj
 0002:000390f4       ?g_dwDataBytesPerBlock@@3KA 000950f4     bootpart:bootpart.obj
 0002:000390f8       ?g_dwLastWrittenLoc@@3KA   000950f8     bootpart:bootpart.obj
 0002:000390fc       ?g_dwLastLogSector@@3KA    000950fc     bootpart:bootpart.obj
 0002:00039100       ?g_pSectorInfoBuf@@3PAU_SectorInfo@@A 00095100     bootpart:bootpart.obj
 0002:00039104       ?g_pbMBRSector@@3PAEA      00095104     bootpart:bootpart.obj
 0002:00039108       ?g_pbBlock@@3PAEA          00095108     bootpart:bootpart.obj
 0002:00039114       s6410VIC0                  00095114     <common>
 0002:00039118       s6410VIC1                  00095118     <common>
 0002:0003911c       video_buffer               0009511c     <common>
 0002:00039120       bpp                        00095120     <common>
 0002:00039124       readPtIndex                00095124     <common>
 0002:00039128       g_usConfig                 00095128     <common>
 0002:00039140       oOtgDev                    00095140     <common>
 0002:000391b4       g_pDownPt                  000951b4     <common>
 0002:000391b8       oInterfaceGet              000951b8     <common>
 0002:000391c0       oStatusGet                 000951c0     <common>
 0002:000391c8       g_PCLK                     000951c8     <common>
 0002:000391cc       pfnEDbgGetFrame            000951cc     <common>
 0002:000391d0       pfnEDbgInit                000951d0     <common>
 0002:000391d4       pfnEDbgSendFrame           000951d4     <common>
 0002:000391d8       g_pBootCfg                 000951d8     <common>
 0002:000391dc       g_KITLConfig               000951dc     <common>
 0002:000391e0       g_bCleanBootFlag           000951e0     <common>
 0002:000391e4       g_bHiveCleanFlag           000951e4     <common>
 0002:00039200       g_BINRegionInfo            00095200     <common>
 0002:0003ac30       g_DeviceAddr               00096c30     <common>
 0002:0003ac3c       g_DevID                    00096c3c     <common>
 0002:0003ac40       g_dwImageStartBlock        00096c40     <common>
 0002:0003ac44       g_ImageType                00096c44     <common>
 0002:0003ac60       g_TOC                      00096c60     <common>
 0002:0003ae60       g_dwMinImageStart          00096e60     <common>
 0002:0003ae64       g_dwTocEntry               00096e64     <common>
 0002:0003ae68       wNUM_BLOCKS                00096e68     <common>
 0002:0003ae6c       g_bFormatPartitionFlag     00096e6c     <common>
 0002:0003ae80       g_oalCacheInfo             00096e80     <common>
 0002:0003aec8       g_pOEMVerifyMemory         00096ec8     <common>
 0002:0003aecc       g_dwROMOffset              00096ecc     <common>
 0002:0003aed0       g_pOEMReportError          00096ed0     <common>
 0002:0003aed4       g_pOEMMultiBINNotify       00096ed4     <common>
 0002:0003aed8       g_pOEMCheckSignature       00096ed8     <common>
 0002:0003aedc       szSprintf                  00096edc     <common>
 0002:0003aee0       TFtpLinks                  00096ee0     <common>
 0002:0003b7a0       wOdoWellKnownServerPort    000977a0     <common>
 0002:0003b7a2       wHostWellKnownServerPort   000977a2     <common>
 0002:0003b7a4       nNumTFtpLinksInUse         000977a4     <common>
 0002:0003b7c0       TFTPFrameBuffer            000977c0     <common>
 0002:0003bc00       TFtpdServerRegistry        00097c00     <common>
 0002:0003bcc8       _soft_fp_control           00097cc8     <common>
 0002:0003bccc       v_pIOP_PIO_regs            00097ccc     <common>
 0002:0003bcd0       Bpp                        00097cd0     <common>
 0002:0003bce0       DOEPDMA                    00097ce0     <common>
 0002:0003bd20       DOEPINT                    00097d20     <common>
 0002:0003bd60       DIEPINT                    00097d60     <common>
 0002:0003bda0       DIEPCTL                    00097da0     <common>
 0002:0003bde0       g_usbDeviceDescriptor      00097de0     <common>
 0002:0003be00       DOEPTSIZ                   00097e00     <common>
 0002:0003be40       DOEPCTL                    00097e40     <common>
 0002:0003be80       DIEPTSIZ                   00097e80     <common>
 0002:0003bec0       EP_FIFO                    00097ec0     <common>
 0002:0003bf00       EndPointsInfo              00097f00     <common>
 0002:0003bf40       DIEPDMA                    00097f40     <common>
 0002:0003bf7c       gnPpn                      00097f7c     <common>

 entry point at        0001:0002a4f8

 Static symbols

 0001:000206c8       SetCS8900MACAddress        000316c8 f   main.obj
 0001:00020878       PrintMainMenu              00031878 f   main.obj
 0001:00020ddc       OEMUpdateTOC               00031ddc f   main.obj
 0001:00021600       InitializeDisplay          00032600 f   main.obj
 0001:0002192c       InitializeOTGCLK           0003292c f   main.obj
 0001:000219d8       MainMenu                   000329d8 f   main.obj
 0001:00023a8c       ?BootConfigInit@@YAXK@Z    00034a8c f   nand.obj
 0001:00025c90       ?GetDecimalNumber@@YAKXZ   00036c90 f   nand.obj
 0001:00025d1c       ?MLC_Print_Page_Data_VFL@@YAXPAE0I@Z 00036d1c f   nand.obj
 0001:00025f50       ?MLC_Print_Page_Data@@YAXPAE0@Z 00036f50 f   nand.obj
 0001:00026104       ?MLC_FIL_Write_Test@@YAXXZ 00037104 f   nand.obj
 0001:00026268       ?MLC_VFL_Write_Test@@YAXXZ 00037268 f   nand.obj
 0001:000263b0       ?MLC_VFL_Read_Test@@YAXXZ  000373b0 f   nand.obj
 0001:000264ec       ?MLC_RAW_Erase_Test@@YAXXZ 000374ec f   nand.obj
 0001:000265a4       ?MLC_RAW_Write_Test@@YAXXZ 000375a4 f   nand.obj
 0001:000266d4       ?MLC_RAW_Read_Test@@YAXXZ  000376d4 f   nand.obj
 0001:000267ac       ?MLC_RAW_Find_MBR_Test@@YAXXZ 000377ac f   nand.obj
 0001:00026a60       ?MLC_Mark_BadBlock_Test@@YAXXZ 00037a60 f   nand.obj
 0001:00026f50       delayLoop                  00037f50 f   usb.obj
 0001:0002879c       setPCA9530PWM              0003979c f   MegaDisplay.obj
 0001:00029aec       VIC_InitializeVectTable    0003aaec f   InterruptController.obj
 0001:0002a258       IIC_SetWrite               0003b258 f   i2c.obj
 0001:0002a2b8       IIC_Wait                   0003b2b8 f   i2c.obj
 0001:0002af8c       GetFormatValue             0003bf8c f   oal_blnk:format.obj
 0001:0002b958       pOutputByte                0003c958 f   oal_blcommon:format.obj
 0001:0002b988       pOutputNumHex              0003c988 f   oal_blcommon:format.obj
 0001:0002b9d0       pOutputNumDecimal          0003c9d0 f   oal_blcommon:format.obj
 0001:0002bdcc       GetImageType               0003cdcc f   oal_blcommon:blcommon.obj
 0001:0002bf0c       CheckImageManifest         0003cf0c f   oal_blcommon:blcommon.obj
 0001:0002c038       DownloadNB0                0003d038 f   oal_blcommon:blcommon.obj
 0001:0002c238       WriteImageToFlash          0003d238 f   oal_blcommon:blcommon.obj
 0001:0002c318       IsKernelRegion             0003d318 f   oal_blcommon:blcommon.obj
 0001:0002c3d4       DownloadBin                0003d3d4 f   oal_blcommon:blcommon.obj
 0001:0002c7ec       DownloadImage              0003d7ec f   oal_blcommon:blcommon.obj
 0001:0002dc6c       EbootSimpleCallback        0003ec6c f   eboot:ebsimp.obj
 0001:0002ec6c       CRC                        0003fc6c f   eboot:udp.obj
 0001:0002f428       FormatDHCPName             00040428 f   eboot:dhcp.obj
 0001:000339ac       xtoa                       000449ac f   fulllibc:xtoa.obj
 0001:00035e00       Disp_initialize_port_RGBIF 00046e00 f   s3c6410_disp_lib:s3c6410_display_con.obj
 0001:00035ea4       Disp_initialize_TVEnc      00046ea4 f   s3c6410_disp_lib:s3c6410_display_con.obj
 0001:00035f98       Disp_window0_initialize    00046f98 f   s3c6410_disp_lib:s3c6410_display_con.obj
 0001:0003612c       Disp_window1_initialize    0004712c f   s3c6410_disp_lib:s3c6410_display_con.obj
 0001:00036304       Disp_window2_initialize    00047304 f   s3c6410_disp_lib:s3c6410_display_con.obj
 0001:000364dc       Disp_window3_initialize    000474dc f   s3c6410_disp_lib:s3c6410_display_con.obj
 0001:000365fc       Disp_window4_initialize    000475fc f   s3c6410_disp_lib:s3c6410_display_con.obj
 0001:0003671c       Disp_get_vclk_direction_divider 0004771c f   s3c6410_disp_lib:s3c6410_display_con.obj
 0001:0003699c       Disp_initialize_RGBIF      0004799c f   s3c6410_disp_lib:s3c6410_display_con.obj
 0001:00036ac0       Disp_initialize_RGBIF_withTVEnc 00047ac0 f   s3c6410_disp_lib:s3c6410_display_con.obj
 0001:00037070       WaitForInit                00048070 f   oal_usbdbgsermdd:serifc.obj
 0001:00037378       StartTransfer              00048378 f   oal_usbdbgsermdd:usbser.obj
 0001:00037468       ContinueRxTransfer         00048468 f   oal_usbdbgsermdd:usbser.obj
 0001:00037598       ContinueTxTransfer         00048598 f   oal_usbdbgsermdd:usbser.obj
 0001:000376c4       AbortTransfer              000486c4 f   oal_usbdbgsermdd:usbser.obj
 0001:00037710       SendDescriptor             00048710 f   oal_usbdbgsermdd:usbser.obj
 0001:000379d8       ProcessSetupPacket         000489d8 f   oal_usbdbgsermdd:usbser.obj
 0001:00037d10       UpdateUSBDesc              00048d10 f   oal_usbdbgsermdd:usbser.obj
 0001:00038208       SendRecvData               00049208 f   oal_usbdbgsermdd:usbser.obj
 0001:00038348       HostMiniQueryInformation   00049348 f   oal_usbdbgrndismdd:rndismin.obj
 0001:0003858c       HostMiniSetInformation     0004958c f   oal_usbdbgrndismdd:rndismin.obj
 0001:000386e8       PrepareRndisPacket         000496e8 f   oal_usbdbgrndismdd:rndismin.obj
 0001:000387dc       SendRndisMessage           000497dc f   oal_usbdbgrndismdd:rndismin.obj
 0001:000391b4       StartTransfer              0004a1b4 f   oal_usbdbgrndismdd:usbrndis.obj
 0001:000392a4       ContinueRxTransfer         0004a2a4 f   oal_usbdbgrndismdd:usbrndis.obj
 0001:000393c8       ContinueTxTransfer         0004a3c8 f   oal_usbdbgrndismdd:usbrndis.obj
 0001:000394f0       AbortTransfer              0004a4f0 f   oal_usbdbgrndismdd:usbrndis.obj
 0001:00039538       SendDescriptor             0004a538 f   oal_usbdbgrndismdd:usbrndis.obj
 0001:0003981c       ProcessRndisMsg            0004a81c f   oal_usbdbgrndismdd:usbrndis.obj
 0001:000398a8       ProcessSetupPacket         0004a8a8 f   oal_usbdbgrndismdd:usbrndis.obj
 0001:00039c44       UpdateUSBDesc              0004ac44 f   oal_usbdbgrndismdd:usbrndis.obj
 0001:0003a1f4       SendRecvData               0004b1f4 f   oal_usbdbgrndismdd:usbrndis.obj
 0001:0003a3d4       ?DevStatChangeEvent@@YAXKPAW4USBDBG_MSG@@PAE@Z 0004b3d4 f   s3c6410_usbdbgpdd:usbdbgpdd.obj
 0001:0003a500       ?WaitForSetupXferDone@@YAXXZ 0004b500 f   s3c6410_usbdbgpdd:usbdbgpdd.obj
 0001:0003be84       Read_DeviceID              0004ce84 f   SMDK6410_MLC_FIL:S3C6410_FIL.obj
 0001:0003bffc       MLC_Print_Page_Data        0004cffc f   SMDK6410_MLC_FIL:S3C6410_FIL.obj
 0001:0003c0e8       Write_Spare                0004d0e8 f   SMDK6410_MLC_FIL:S3C6410_FIL.obj
 0001:0003c3f4       Write_Spare_Separate       0004d3f4 f   SMDK6410_MLC_FIL:S3C6410_FIL.obj
 0001:0003c814       Write_Spare_8BitECC        0004d814 f   SMDK6410_MLC_FIL:S3C6410_FIL.obj
 0001:0003cb7c       Decoding_MainECC           0004db7c f   SMDK6410_MLC_FIL:S3C6410_FIL.obj
 0001:0003cc5c       Decoding_Main8BitECC       0004dc5c f   SMDK6410_MLC_FIL:S3C6410_FIL.obj
 0001:0003cde4       Decoding_SpareECC          0004dde4 f   SMDK6410_MLC_FIL:S3C6410_FIL.obj
 0001:0003cf20       Decoding_Spare8BitECC      0004df20 f   SMDK6410_MLC_FIL:S3C6410_FIL.obj
 0001:0003d454       MLC_Print_SFR              0004e454 f   SMDK6410_MLC_FIL:S3C6410_FIL.obj
 0001:0003e35c       Read_Sector                0004f35c f   SMDK6410_MLC_FIL:S3C6410_FIL.obj
 0001:0003e5a8       Read_Sector_8BitECC        0004f5a8 f   SMDK6410_MLC_FIL:S3C6410_FIL.obj
 0001:0003e7f8       Read_Spare                 0004f7f8 f   SMDK6410_MLC_FIL:S3C6410_FIL.obj
 0001:0003ee18       Read_Spare_Separate        0004fe18 f   SMDK6410_MLC_FIL:S3C6410_FIL.obj
 0001:0003f3c0       Read_Spare_8BitECC         000503c0 f   SMDK6410_MLC_FIL:S3C6410_FIL.obj
 0001:000406a0       _InitBackupLBCxt           000516a0 f   FTL_MLC:FTLInterface.obj
 0001:00040714       _GetBackupLBIdx            00051714 f   FTL_MLC:FTLInterface.obj
 0001:0004075c       _LogBlockFreePO            0005175c f   FTL_MLC:FTLInterface.obj
 0001:00040800       _DisableCopyMerge          00051800 f   FTL_MLC:FTLInterface.obj
 0001:000408bc       _ScanLogSection            000518bc f   FTL_MLC:FTLInterface.obj
 0001:00040948       _GetFreeVb                 00051948 f   FTL_MLC:FTLInterface.obj
 0001:00040b50       _SetFreeVb                 00051b50 f   FTL_MLC:FTLInterface.obj
 0001:00040c24       _InitLogCxt                00051c24 f   FTL_MLC:FTLInterface.obj
 0001:00040c84       _ConvertL2V                00051c84 f   FTL_MLC:FTLInterface.obj
 0001:00040dbc       _GetEC                     00051dbc f   FTL_MLC:FTLInterface.obj
 0001:00040e58       _ModifyMap                 00051e58 f   FTL_MLC:FTLInterface.obj
 0001:00040f1c       _ModifyReclaimMap          00051f1c f   FTL_MLC:FTLInterface.obj
 0001:00041028       _ModifyECTbl               00052028 f   FTL_MLC:FTLInterface.obj
 0001:00041128       _DoSimpleMerge             00052128 f   FTL_MLC:FTLInterface.obj
 0001:00041488       _PrintFTLCxt               00052488 f   FTL_MLC:FTLInterface.obj
 0001:00041e0c       _ShouldLSBCopy             00052e0c f   FTL_MLC:FTLInterface.obj
 0001:00041f2c       _EraseBackupLB             00052f2c f   FTL_MLC:FTLInterface.obj
 0001:00041fc4       _BackupLSB                 00052fc4 f   FTL_MLC:FTLInterface.obj
 0001:00042388       _StoreFTLCxt               00053388 f   FTL_MLC:FTLInterface.obj
 0001:00042600       _LoadFTLCxt                00053600 f   FTL_MLC:FTLInterface.obj
 0001:000429b4       _DoTripleMerge             000539b4 f   FTL_MLC:FTLInterface.obj
 0001:000431bc       _MakeLogMap                000541bc f   FTL_MLC:FTLInterface.obj
 0001:00043a2c       _GetReservedBlk            00054a2c f   VFL_MLC:VFLInterface.obj
 0001:00043bac       _RemapBadBlk               00054bac f   VFL_MLC:VFLInterface.obj
 0001:00043dd0       _GetPhysicalAddr           00054dd0 f   VFL_MLC:VFLInterface.obj
 0001:00043ef4       _CheckInitialBad           00054ef4 f   VFL_MLC:VFLInterface.obj
 0001:00044080       _WriteBadMark              00055080 f   VFL_MLC:VFLInterface.obj
 0001:0004448c       _PrintVFLCxt               0005548c f   VFL_MLC:VFLInterface.obj
 0001:000447e8       _StoreVFLCxt               000557e8 f   VFL_MLC:VFLInterface.obj
 0001:00044aec       _LoadVFLCxt                00055aec f   VFL_MLC:VFLInterface.obj
 0001:00044d60       _ReplaceBadBlk             00055d60 f   VFL_MLC:VFLInterface.obj
 0001:000451bc       _WaitEraseComplete         000561bc f   VFL_MLC:VFLInterface.obj
 0001:00048218       _WriteInitBadList          00059218 f   VFL_MLC:VFLInterface.obj
 0001:000494dc       ?LBAtoCHS@@YA?AU_Addr@@PAU_FlashInfo@@U1@@Z 0005a4dc f   bootpart:bootpart.obj
 0001:00049564       WriteMBR                   0005a564 f   bootpart:bootpart.obj
 0001:000497a4       ?CreatePartition@@YAPAXKKKHK@Z 0005a7a4 f   bootpart:bootpart.obj
